Archive member included because of file (symbol)

/usr/local/xenon/usr/lib/libxenon.a(argv.o)
                              /usr/local/xenon/lib/gcc/xenon/4.6.1/../../../../xenon/lib/../lib/crt1.o (__check_argv)
/usr/local/xenon/usr/lib/libxenon.a(startup_from_xell.o)
                              (_start)
/usr/local/xenon/usr/lib/libxenon.a(console.o)
                              VL.o (console_init)
/usr/local/xenon/usr/lib/libxenon.a(input.o)
                              dashboard.o (get_controller_data)
/usr/local/xenon/usr/lib/libxenon.a(newlib.o)
                              /usr/local/xenon/usr/lib/libxenon.a(console.o) (stdout_hook)
/usr/local/xenon/usr/lib/libxenon.a(xenon_syscalls.o)
                              /usr/local/xenon/usr/lib/libxenon.a(newlib.o) (__syscalls)
/usr/local/xenon/usr/lib/libxenon.a(atomic.o)
                              /usr/local/xenon/usr/lib/libxenon.a(startup_from_xell.o) (atomic_clearset)
/usr/local/xenon/usr/lib/libxenon.a(cache.o)
                              /usr/local/xenon/usr/lib/libxenon.a(console.o) (memdcbst)
/usr/local/xenon/usr/lib/libxenon.a(except.o)
                              (exc_base)
/usr/local/xenon/usr/lib/libxenon.a(c_except.o)
                              /usr/local/xenon/usr/lib/libxenon.a(except.o) (crashdump)
/usr/local/xenon/usr/lib/libxenon.a(vm.o)
                              /usr/local/xenon/usr/lib/libxenon.a(except.o) (vm_segfault_handler)
/usr/local/xenon/usr/lib/libxenon.a(usbctrl.o)
                              /usr/local/xenon/usr/lib/libxenon.a(input.o) (usbctrl_set_rumble)
/usr/local/xenon/usr/lib/libxenon.a(usbd.o)
                              /usr/local/xenon/usr/lib/libxenon.a(usbctrl.o) (usb_open_pipe)
/usr/local/xenon/usr/lib/libxenon.a(usbdevs.o)
                              /usr/local/xenon/usr/lib/libxenon.a(usbd.o) (usb_find_driver)
/usr/local/xenon/usr/lib/libxenon.a(usbhid.o)
                              /usr/local/xenon/usr/lib/libxenon.a(usbdevs.o) (usbhid_driver)
/usr/local/xenon/usr/lib/libxenon.a(usbhub.o)
                              /usr/local/xenon/usr/lib/libxenon.a(usbd.o) (usb_scan)
/usr/local/xenon/usr/lib/libxenon.a(usbmain.o)
                              /usr/local/xenon/usr/lib/libxenon.a(xenon_syscalls.o) (usb_shutdown)
/usr/local/xenon/usr/lib/libxenon.a(tinyehci.o)
                              /usr/local/xenon/usr/lib/libxenon.a(usbmain.o) (USBStorage_Init)
/usr/local/xenon/usr/lib/libxenon.a(xenon_smc.o)
                              /usr/local/xenon/usr/lib/libxenon.a(xenon_syscalls.o) (xenon_smc_send_message)
/usr/local/xenon/usr/lib/libxenon.a(xenon_power.o)
                              /usr/local/xenon/usr/lib/libxenon.a(xenon_syscalls.o) (xenon_is_thread_task_running)
/usr/local/xenon/usr/lib/libxenon.a(xenon_uart.o)
                              /usr/local/xenon/usr/lib/libxenon.a(newlib.o) (putch)
/usr/local/xenon/usr/lib/libxenon.a(xenon_sfcx.o)
                              VL.o (sfcx_init)
/usr/local/xenon/usr/lib/libxenon.a(xenon_config.o)
                              VL.o (xenon_config_init)
/usr/local/xenon/usr/lib/libxenon.a(edram.o)
                              VL.o (edram_init)
/usr/local/xenon/usr/lib/libxenon.a(xe.o)
                              /usr/local/xenon/usr/lib/libxenon.a(edram.o) (Xe_pSyncToDevice)
/usr/local/xenon/usr/lib/libxenon.a(xenos.o)
                              /usr/local/xenon/usr/lib/libxenon.a(edram.o) (xenos_write32)
/usr/local/xenon/usr/lib/libxenon.a(xenos_edid.o)
                              /usr/local/xenon/usr/lib/libxenon.a(xenos.o) (xenos_get_edid)
/usr/local/xenon/usr/lib/libxenon.a(enet.o)
                              /usr/local/xenon/usr/lib/libxenon.a(xenon_syscalls.o) (enet_quiesce)
/usr/local/xenon/usr/lib/libxenon.a(network.o)
                              VL.o (network_init)
/usr/local/xenon/usr/lib/libxenon.a(xb360.o)
                              /usr/local/xenon/usr/lib/libxenon.a(xenon_sfcx.o) (xenon_get_PCIBridgeRevisionID)
/usr/local/xenon/usr/lib/libxenon.a(lib_malloc.o)
                              /usr/local/xenon/usr/lib/libxenon.a(usbctrl.o) (kfree)
/usr/local/xenon/usr/lib/libxenon.a(io.o)
                              /usr/local/xenon/usr/lib/libxenon.a(usbmain.o) (read32)
/usr/local/xenon/usr/lib/libxenon.a(time.o)
                              /usr/local/xenon/usr/lib/libxenon.a(xenon_power.o) (udelay)
/usr/local/xenon/usr/lib/libxenon.a(dummy.o)
                              /usr/local/xenon/usr/lib/libxenon.a(usbdevs.o) (dummy_driver)
/usr/local/xenon/usr/lib/libxenon.a(ohci.o)
                              /usr/local/xenon/usr/lib/libxenon.a(usbmain.o) (ohci_driver)
/usr/local/xenon/usr/lib/libxenon.a(usbdebug.o)
                              /usr/local/xenon/usr/lib/libxenon.a(usbhub.o) (usb_dbg_dumpportstatus)
/usr/local/xenon/usr/lib/libxenon.a(usb_os.o)
                              /usr/local/xenon/usr/lib/libxenon.a(tinyehci.o) (ehci_maligned)
/usr/local/xenon/usr/lib/libxenon.a(xenon_gpio.o)
                              /usr/local/xenon/usr/lib/libxenon.a(enet.o) (xenon_gpio_control)
/usr/local/xenon/usr/lib/libxenon.a(cpusleep.o)
                              /usr/local/xenon/usr/lib/libxenon.a(xenon_power.o) (cpusleep)
/usr/local/xenon/usr/lib/libxenon.a(xenon_secotp.o)
                              /usr/local/xenon/usr/lib/libxenon.a(xb360.o) (xenon_secotp_read_line)
/usr/local/xenon/usr/lib/libxenon.a(ucode.o)
                              /usr/local/xenon/usr/lib/libxenon.a(xe.o) (xenos_ucode1)
/usr/local/xenon/usr/lib/libxenon.a(init.o)
                              /usr/local/xenon/usr/lib/libxenon.a(network.o) (lwip_init)
/usr/local/xenon/usr/lib/libxenon.a(mem.o)
                              /usr/local/xenon/usr/lib/libxenon.a(init.o) (mem_init)
/usr/local/xenon/usr/lib/libxenon.a(dns.o)
                              /usr/local/xenon/usr/lib/libxenon.a(init.o) (dns_init)
/usr/local/xenon/usr/lib/libxenon.a(memp.o)
                              /usr/local/xenon/usr/lib/libxenon.a(init.o) (memp_init)
/usr/local/xenon/usr/lib/libxenon.a(netif.o)
                              /usr/local/xenon/usr/lib/libxenon.a(init.o) (netif_init)
/usr/local/xenon/usr/lib/libxenon.a(pbuf.o)
                              /usr/local/xenon/usr/lib/libxenon.a(enet.o) (pbuf_header)
/usr/local/xenon/usr/lib/libxenon.a(stats.o)
                              /usr/local/xenon/usr/lib/libxenon.a(init.o) (stats_init)
/usr/local/xenon/usr/lib/libxenon.a(tcp.o)
                              /usr/local/xenon/usr/lib/libxenon.a(netif.o) (tcp_listen_pcbs)
/usr/local/xenon/usr/lib/libxenon.a(ip_addr.o)
                              /usr/local/xenon/usr/lib/libxenon.a(dns.o) (ipaddr_addr)
/usr/local/xenon/usr/lib/libxenon.a(ip.o)
                              /usr/local/xenon/usr/lib/libxenon.a(tcp.o) (ip_route)
/usr/local/xenon/usr/lib/libxenon.a(ip_frag.o)
                              /usr/local/xenon/usr/lib/libxenon.a(ip.o) (ip_reass)
/usr/local/xenon/usr/lib/libxenon.a(tcp_out.o)
                              /usr/local/xenon/usr/lib/libxenon.a(tcp.o) (tcp_enqueue_flags)
/usr/local/xenon/usr/lib/libxenon.a(udp.o)
                              /usr/local/xenon/usr/lib/libxenon.a(ip.o) (udp_input)
/usr/local/xenon/usr/lib/libxenon.a(etharp.o)
                              /usr/local/xenon/usr/lib/libxenon.a(enet.o) (etharp_ip_input)
/usr/local/xenon/usr/lib/libxenon.a(dhcp.o)
                              /usr/local/xenon/usr/lib/libxenon.a(netif.o) (dhcp_network_changed)
/usr/local/xenon/usr/lib/libxenon.a(raw.o)
                              /usr/local/xenon/usr/lib/libxenon.a(ip.o) (raw_input)
/usr/local/xenon/usr/lib/libxenon.a(timers.o)
                              /usr/local/xenon/usr/lib/libxenon.a(tcp.o) (tcp_timer_needed)
/usr/local/xenon/usr/lib/libxenon.a(hmac_sha1.o)
                              /usr/local/xenon/usr/lib/libxenon.a(xb360.o) (HMAC_SHA1_Init)
/usr/local/xenon/usr/lib/libxenon.a(rc4.o)
                              /usr/local/xenon/usr/lib/libxenon.a(xb360.o) (rc4_init)
/usr/local/xenon/usr/lib/libxenon.a(sha1.o)
                              /usr/local/xenon/usr/lib/libxenon.a(hmac_sha1.o) (SHA1_Init)
/usr/local/xenon/usr/lib/libxenon.a(lib_queue.o)
                              /usr/local/xenon/usr/lib/libxenon.a(ohci.o) (q_enqueue)
/usr/local/xenon/usr/lib/libxenon.a(tcp_in.o)
                              /usr/local/xenon/usr/lib/libxenon.a(ip.o) (tcp_input)
/usr/local/xenon/usr/lib/libxenon.a(inet_chksum.o)
                              /usr/local/xenon/usr/lib/libxenon.a(tcp_out.o) (inet_chksum_pseudo)
/usr/local/xenon/usr/lib/libxenon.a(icmp.o)
                              /usr/local/xenon/usr/lib/libxenon.a(ip.o) (icmp_input)
/usr/local/xenon/lib/gcc/xenon/4.6.1/32/libgcc.a(crtsavgpr.o)
                              /usr/local/xenon/usr/lib/libxenon.a(edram.o) (_savegpr_14)
/usr/local/xenon/lib/gcc/xenon/4.6.1/32/libgcc.a(crtresxgpr.o)
                              /usr/local/xenon/usr/lib/libxenon.a(edram.o) (_restgpr_14_x)
/usr/local/xenon/lib/gcc/xenon/4.6.1/32/libgcc.a(unwind-dw2-fde-glibc.o)
                              /usr/local/xenon/lib/gcc/xenon/4.6.1/../../../../xenon/lib/../lib/crt1.o (__register_frame)
/usr/local/xenon/xenon/lib/32/libc.a(lib_a-assert.o)
                              /usr/local/xenon/usr/lib/libxenon.a(xenon_syscalls.o) (__assert_func)
/usr/local/xenon/xenon/lib/32/libc.a(lib_a-ctype_.o)
                              /usr/local/xenon/usr/lib/libxenon.a(newlib.o) (__ctype_ptr__)
/usr/local/xenon/xenon/lib/32/libc.a(lib_a-errno.o)
                              /usr/local/xenon/usr/lib/libxenon.a(newlib.o) (__errno)
/usr/local/xenon/xenon/lib/32/libc.a(lib_a-exit.o)
                              /usr/local/xenon/lib/gcc/xenon/4.6.1/../../../../xenon/lib/../lib/crt1.o (exit)
/usr/local/xenon/xenon/lib/32/libc.a(lib_a-fclose.o)
                              /usr/local/xenon/usr/lib/libxenon.a(xe.o) (fclose)
/usr/local/xenon/xenon/lib/32/libc.a(lib_a-fflush.o)
                              /usr/local/xenon/xenon/lib/32/libc.a(lib_a-fclose.o) (_fflush_r)
/usr/local/xenon/xenon/lib/32/libc.a(lib_a-findfp.o)
                              /usr/local/xenon/xenon/lib/32/libc.a(lib_a-fclose.o) (__sfp_lock_acquire)
/usr/local/xenon/xenon/lib/32/libc.a(lib_a-fiprintf.o)
                              /usr/local/xenon/xenon/lib/32/libc.a(lib_a-assert.o) (fiprintf)
/usr/local/xenon/xenon/lib/32/libc.a(lib_a-fopen.o)
                              /usr/local/xenon/usr/lib/libxenon.a(xe.o) (fopen)
/usr/local/xenon/xenon/lib/32/libc.a(lib_a-fread.o)
                              /usr/local/xenon/usr/lib/libxenon.a(xe.o) (fread)
/usr/local/xenon/xenon/lib/32/libc.a(lib_a-freer.o)
                              /usr/local/xenon/xenon/lib/32/libc.a(lib_a-fclose.o) (_free_r)
/usr/local/xenon/xenon/lib/32/libc.a(lib_a-fseek.o)
                              /usr/local/xenon/xenon/lib/32/libc.a(lib_a-fopen.o) (_fseek_r)
/usr/local/xenon/xenon/lib/32/libc.a(lib_a-fstatr.o)
                              /usr/local/xenon/xenon/lib/32/libc.a(lib_a-fseek.o) (_fstat_r)
/usr/local/xenon/xenon/lib/32/libc.a(lib_a-ftell.o)
                              /usr/local/xenon/usr/lib/libxenon.a(xe.o) (ftell)
/usr/local/xenon/xenon/lib/32/libc.a(lib_a-fwalk.o)
                              /usr/local/xenon/xenon/lib/32/libc.a(lib_a-findfp.o) (_fwalk)
/usr/local/xenon/xenon/lib/32/libc.a(lib_a-impure.o)
                              /usr/local/xenon/xenon/lib/32/libc.a(lib_a-exit.o) (_global_impure_ptr)
/usr/local/xenon/xenon/lib/32/libc.a(lib_a-makebuf.o)
                              /usr/local/xenon/xenon/lib/32/libc.a(lib_a-fseek.o) (__smakebuf_r)
/usr/local/xenon/xenon/lib/32/libc.a(lib_a-malign.o)
                              /usr/local/xenon/usr/lib/libxenon.a(xe.o) (memalign)
/usr/local/xenon/xenon/lib/32/libc.a(lib_a-malignr.o)
                              /usr/local/xenon/xenon/lib/32/libc.a(lib_a-malign.o) (_memalign_r)
/usr/local/xenon/xenon/lib/32/libc.a(lib_a-malloc.o)
                              /usr/local/xenon/usr/lib/libxenon.a(newlib.o) (malloc)
/usr/local/xenon/xenon/lib/32/libc.a(lib_a-mallocr.o)
                              /usr/local/xenon/xenon/lib/32/libc.a(lib_a-freer.o) (__malloc_av_)
/usr/local/xenon/xenon/lib/32/libc.a(lib_a-memcmp.o)
                              /usr/local/xenon/usr/lib/libxenon.a(newlib.o) (memcmp)
/usr/local/xenon/xenon/lib/32/libc.a(lib_a-memcpy.o)
                              /usr/local/xenon/usr/lib/libxenon.a(console.o) (memcpy)
/usr/local/xenon/xenon/lib/32/libc.a(lib_a-memset.o)
                              /usr/local/xenon/usr/lib/libxenon.a(usbctrl.o) (memset)
/usr/local/xenon/xenon/lib/32/libc.a(lib_a-openr.o)
                              /usr/local/xenon/xenon/lib/32/libc.a(lib_a-fopen.o) (_open_r)
/usr/local/xenon/xenon/lib/32/libc.a(lib_a-printf.o)
                              dashboard.o (printf)
/usr/local/xenon/xenon/lib/32/libc.a(lib_a-putchar.o)
                              /usr/local/xenon/usr/lib/libxenon.a(xe.o) (putchar)
/usr/local/xenon/xenon/lib/32/libc.a(lib_a-putc.o)
                              /usr/local/xenon/xenon/lib/32/libc.a(lib_a-putchar.o) (_putc_r)
/usr/local/xenon/xenon/lib/32/libc.a(lib_a-puts.o)
                              dashboard.o (puts)
/usr/local/xenon/xenon/lib/32/libc.a(lib_a-reent.o)
                              /usr/local/xenon/xenon/lib/32/libc.a(lib_a-fstatr.o) (errno)
/usr/local/xenon/xenon/lib/32/libc.a(lib_a-refill.o)
                              /usr/local/xenon/xenon/lib/32/libc.a(lib_a-fread.o) (__srefill_r)
/usr/local/xenon/xenon/lib/32/libc.a(lib_a-sbrkr.o)
                              /usr/local/xenon/xenon/lib/32/libc.a(lib_a-freer.o) (_sbrk_r)
/usr/local/xenon/xenon/lib/32/libc.a(lib_a-sprintf.o)
                              /usr/local/xenon/usr/lib/libxenon.a(xenon_syscalls.o) (sprintf)
/usr/local/xenon/xenon/lib/32/libc.a(lib_a-stdio.o)
                              /usr/local/xenon/xenon/lib/32/libc.a(lib_a-findfp.o) (__sread)
/usr/local/xenon/xenon/lib/32/libc.a(lib_a-strcat.o)
                              /usr/local/xenon/usr/lib/libxenon.a(c_except.o) (strcat)
/usr/local/xenon/xenon/lib/32/libc.a(lib_a-strchr.o)
                              /usr/local/xenon/usr/lib/libxenon.a(newlib.o) (strchr)
/usr/local/xenon/xenon/lib/32/libc.a(lib_a-strcmp.o)
                              /usr/local/xenon/usr/lib/libxenon.a(newlib.o) (strcmp)
/usr/local/xenon/xenon/lib/32/libc.a(lib_a-strcpy.o)
                              /usr/local/xenon/usr/lib/libxenon.a(xenon_syscalls.o) (strcpy)
/usr/local/xenon/xenon/lib/32/libc.a(lib_a-strlen.o)
                              /usr/local/xenon/usr/lib/libxenon.a(newlib.o) (strlen)
/usr/local/xenon/xenon/lib/32/libc.a(lib_a-strncmp.o)
                              /usr/local/xenon/usr/lib/libxenon.a(newlib.o) (strncmp)
/usr/local/xenon/xenon/lib/32/libc.a(lib_a-strncpy.o)
                              /usr/local/xenon/usr/lib/libxenon.a(newlib.o) (strncpy)
/usr/local/xenon/xenon/lib/32/libc.a(lib_a-strnlen.o)
                              /usr/local/xenon/usr/lib/libxenon.a(newlib.o) (strnlen)
/usr/local/xenon/xenon/lib/32/libc.a(lib_a-strrchr.o)
                              /usr/local/xenon/usr/lib/libxenon.a(newlib.o) (strrchr)
/usr/local/xenon/xenon/lib/32/libc.a(lib_a-svfprintf.o)
                              /usr/local/xenon/xenon/lib/32/libc.a(lib_a-sprintf.o) (_svfprintf_r)
/usr/local/xenon/xenon/lib/32/libc.a(lib_a-vfiprintf.o)
                              /usr/local/xenon/xenon/lib/32/libc.a(lib_a-fiprintf.o) (_vfiprintf_r)
/usr/local/xenon/xenon/lib/32/libc.a(lib_a-vfprintf.o)
                              /usr/local/xenon/xenon/lib/32/libc.a(lib_a-printf.o) (_vfprintf_r)
/usr/local/xenon/xenon/lib/32/libc.a(lib_a-vprintf.o)
                              /usr/local/xenon/usr/lib/libxenon.a(xe.o) (vprintf)
/usr/local/xenon/xenon/lib/32/libc.a(lib_a-wbuf.o)
                              /usr/local/xenon/xenon/lib/32/libc.a(lib_a-putc.o) (__swbuf_r)
/usr/local/xenon/xenon/lib/32/libc.a(lib_a-writer.o)
                              /usr/local/xenon/xenon/lib/32/libc.a(lib_a-stdio.o) (_write_r)
/usr/local/xenon/xenon/lib/32/libc.a(lib_a-wsetup.o)
                              /usr/local/xenon/xenon/lib/32/libc.a(lib_a-vfiprintf.o) (__swsetup_r)
/usr/local/xenon/xenon/lib/32/libc.a(lib_a-__call_atexit.o)
                              /usr/local/xenon/xenon/lib/32/libc.a(lib_a-exit.o) (__call_exitprocs)
/usr/local/xenon/xenon/lib/32/libc.a(lib_a-closer.o)
                              /usr/local/xenon/xenon/lib/32/libc.a(lib_a-stdio.o) (_close_r)
/usr/local/xenon/xenon/lib/32/libc.a(lib_a-dtoa.o)
                              /usr/local/xenon/xenon/lib/32/libc.a(lib_a-svfprintf.o) (_dtoa_r)
/usr/local/xenon/xenon/lib/32/libc.a(lib_a-flags.o)
                              /usr/local/xenon/xenon/lib/32/libc.a(lib_a-fopen.o) (__sflags)
/usr/local/xenon/xenon/lib/32/libc.a(lib_a-fvwrite.o)
                              /usr/local/xenon/xenon/lib/32/libc.a(lib_a-puts.o) (__sfvwrite_r)
/usr/local/xenon/xenon/lib/32/libc.a(lib_a-isattyr.o)
                              /usr/local/xenon/xenon/lib/32/libc.a(lib_a-makebuf.o) (_isatty_r)
/usr/local/xenon/xenon/lib/32/libc.a(lib_a-locale.o)
                              /usr/local/xenon/xenon/lib/32/libc.a(lib_a-svfprintf.o) (_localeconv_r)
/usr/local/xenon/xenon/lib/32/libc.a(lib_a-lseekr.o)
                              /usr/local/xenon/xenon/lib/32/libc.a(lib_a-stdio.o) (_lseek_r)
/usr/local/xenon/xenon/lib/32/libc.a(lib_a-memchr.o)
                              /usr/local/xenon/xenon/lib/32/libc.a(lib_a-svfprintf.o) (memchr)
/usr/local/xenon/xenon/lib/32/libc.a(lib_a-memmove.o)
                              /usr/local/xenon/xenon/lib/32/libc.a(lib_a-svfprintf.o) (memmove)
/usr/local/xenon/xenon/lib/32/libc.a(lib_a-mprec.o)
                              /usr/local/xenon/xenon/lib/32/libc.a(lib_a-dtoa.o) (_Balloc)
/usr/local/xenon/xenon/lib/32/libc.a(lib_a-readr.o)
                              /usr/local/xenon/xenon/lib/32/libc.a(lib_a-stdio.o) (_read_r)
/usr/local/xenon/xenon/lib/32/libc.a(lib_a-reallocr.o)
                              /usr/local/xenon/xenon/lib/32/libc.a(lib_a-svfprintf.o) (_realloc_r)
/usr/local/xenon/xenon/lib/32/libc.a(lib_a-s_isinfd.o)
                              /usr/local/xenon/xenon/lib/32/libc.a(lib_a-svfprintf.o) (__isinfd)
/usr/local/xenon/xenon/lib/32/libc.a(lib_a-s_isnand.o)
                              /usr/local/xenon/xenon/lib/32/libc.a(lib_a-svfprintf.o) (__isnand)
/usr/local/xenon/xenon/lib/32/libc.a(lib_a-callocr.o)
                              /usr/local/xenon/xenon/lib/32/libc.a(lib_a-mprec.o) (_calloc_r)
/usr/local/xenon/lib/gcc/xenon/4.6.1/32/libgcc.a(_udivdi3.o)
                              /usr/local/xenon/xenon/lib/32/libc.a(lib_a-svfprintf.o) (__udivdi3)
/usr/local/xenon/lib/gcc/xenon/4.6.1/32/libgcc.a(_umoddi3.o)
                              /usr/local/xenon/xenon/lib/32/libc.a(lib_a-svfprintf.o) (__umoddi3)

Allocating common symbols
Common symbol       size              file

current_iphdr_src   0x4               /usr/local/xenon/usr/lib/libxenon.a(ip.o)
netif               0x40              /usr/local/xenon/usr/lib/libxenon.a(network.o)
netif_list          0x4               /usr/local/xenon/usr/lib/libxenon.a(netif.o)
console_oldbg       0x4               /usr/local/xenon/usr/lib/libxenon.a(console.o)
tcp_active_pcbs     0x4               /usr/local/xenon/usr/lib/libxenon.a(tcp.o)
udp_pcbs            0x4               /usr/local/xenon/usr/lib/libxenon.a(udp.o)
errno               0x4               /usr/local/xenon/xenon/lib/32/libc.a(lib_a-reent.o)
current_netif       0x4               /usr/local/xenon/usr/lib/libxenon.a(ip.o)
console_oldfg       0x4               /usr/local/xenon/usr/lib/libxenon.a(console.o)
tcp_ticks           0x4               /usr/local/xenon/usr/lib/libxenon.a(tcp.o)
tcp_listen_pcbs     0x4               /usr/local/xenon/usr/lib/libxenon.a(tcp.o)
current_iphdr_dest  0x4               /usr/local/xenon/usr/lib/libxenon.a(ip.o)
cnt                 0x4               /usr/local/xenon/usr/lib/libxenon.a(enet.o)
ipaddr              0x4               /usr/local/xenon/usr/lib/libxenon.a(network.o)
heap_ptr            0x4               /usr/local/xenon/usr/lib/libxenon.a(xenon_syscalls.o)
tcp_tmp_pcb         0x4               /usr/local/xenon/usr/lib/libxenon.a(tcp.o)
tcp_input_pcb       0x4               /usr/local/xenon/usr/lib/libxenon.a(tcp_in.o)
netmask             0x4               /usr/local/xenon/usr/lib/libxenon.a(network.o)
blockbuf            0x4               /usr/local/xenon/usr/lib/libxenon.a(xenon_sfcx.o)
current_header      0x4               /usr/local/xenon/usr/lib/libxenon.a(ip.o)
reloc               0x28              /usr/local/xenon/usr/lib/libxenon.a(edram.o)
dhcp_rx_options_given
                    0xa               /usr/local/xenon/usr/lib/libxenon.a(dhcp.o)
tcp_bound_pcbs      0x4               /usr/local/xenon/usr/lib/libxenon.a(tcp.o)
kmempool            0xc               /usr/local/xenon/usr/lib/libxenon.a(lib_malloc.o)
usb_buses           0x10              /usr/local/xenon/usr/lib/libxenon.a(usbmain.o)
gateway             0x4               /usr/local/xenon/usr/lib/libxenon.a(network.o)
tcp_tw_pcbs         0x4               /usr/local/xenon/usr/lib/libxenon.a(tcp.o)
lwip_stats          0x158             /usr/local/xenon/usr/lib/libxenon.a(stats.o)
netif_default       0x4               /usr/local/xenon/usr/lib/libxenon.a(netif.o)
pagebuf             0x210             /usr/local/xenon/usr/lib/libxenon.a(xenon_config.o)
ehci_hcds           0x340             /usr/local/xenon/usr/lib/libxenon.a(tinyehci.o)
dhcp_rx_options_val
                    0x28              /usr/local/xenon/usr/lib/libxenon.a(dhcp.o)
ram_heap            0x40001c          /usr/local/xenon/usr/lib/libxenon.a(mem.o)

Discarded input sections

 .text          0x0000000000000000        0x0 /usr/local/xenon/lib/gcc/xenon/4.6.1/../../../../xenon/lib/../lib/crt1.o
 .data          0x0000000000000000        0x0 /usr/local/xenon/lib/gcc/xenon/4.6.1/../../../../xenon/lib/../lib/crt1.o
 .bss           0x0000000000000000        0x0 /usr/local/xenon/lib/gcc/xenon/4.6.1/../../../../xenon/lib/../lib/crt1.o
 .text          0x0000000000000000        0x0 /usr/local/xenon/lib/gcc/xenon/4.6.1/../../../../xenon/lib/../lib/crti.o
 .data          0x0000000000000000        0x0 /usr/local/xenon/lib/gcc/xenon/4.6.1/../../../../xenon/lib/../lib/crti.o
 .bss           0x0000000000000000        0x0 /usr/local/xenon/lib/gcc/xenon/4.6.1/../../../../xenon/lib/../lib/crti.o
 .init          0x0000000000000000        0xc /usr/local/xenon/lib/gcc/xenon/4.6.1/../../../../xenon/lib/../lib/crti.o
 .fini          0x0000000000000000        0xc /usr/local/xenon/lib/gcc/xenon/4.6.1/../../../../xenon/lib/../lib/crti.o
 .text          0x0000000000000000      0x184 /usr/local/xenon/lib/gcc/xenon/4.6.1/32/crtbegin.o
 .data          0x0000000000000000        0x4 /usr/local/xenon/lib/gcc/xenon/4.6.1/32/crtbegin.o
 .bss           0x0000000000000000       0x20 /usr/local/xenon/lib/gcc/xenon/4.6.1/32/crtbegin.o
 .got2          0x0000000000000000       0x28 /usr/local/xenon/lib/gcc/xenon/4.6.1/32/crtbegin.o
 .ctors         0x0000000000000000        0x4 /usr/local/xenon/lib/gcc/xenon/4.6.1/32/crtbegin.o
 .dtors         0x0000000000000000        0x4 /usr/local/xenon/lib/gcc/xenon/4.6.1/32/crtbegin.o
 .jcr           0x0000000000000000        0x0 /usr/local/xenon/lib/gcc/xenon/4.6.1/32/crtbegin.o
 .fini          0x0000000000000000        0x4 /usr/local/xenon/lib/gcc/xenon/4.6.1/32/crtbegin.o
 .init          0x0000000000000000        0x4 /usr/local/xenon/lib/gcc/xenon/4.6.1/32/crtbegin.o
 .text          0x0000000000000000        0x0 dashboard.o
 .data          0x0000000000000000        0x0 dashboard.o
 .bss           0x0000000000000000        0x0 dashboard.o
 .text.getInput
                0x0000000000000000       0xd0 dashboard.o
 .text          0x0000000000000000        0x0 main.o
 .data          0x0000000000000000        0x0 main.o
 .bss           0x0000000000000000        0x0 main.o
 .text          0x0000000000000000        0x0 VL.o
 .data          0x0000000000000000        0x0 VL.o
 .bss           0x0000000000000000        0x0 VL.o
 .text          0x0000000000000000        0x0 /usr/local/xenon/usr/lib/libxenon.a(argv.o)
 .data          0x0000000000000000        0x0 /usr/local/xenon/usr/lib/libxenon.a(argv.o)
 .bss           0x0000000000000000        0x0 /usr/local/xenon/usr/lib/libxenon.a(argv.o)
 .data          0x0000000000000000        0x0 /usr/local/xenon/usr/lib/libxenon.a(startup_from_xell.o)
 .bss           0x0000000000000000        0x0 /usr/local/xenon/usr/lib/libxenon.a(startup_from_xell.o)
 .text          0x0000000000000000        0x0 /usr/local/xenon/usr/lib/libxenon.a(console.o)
 .data          0x0000000000000000        0x0 /usr/local/xenon/usr/lib/libxenon.a(console.o)
 .bss           0x0000000000000000        0x0 /usr/local/xenon/usr/lib/libxenon.a(console.o)
 .text.console_pset
                0x0000000000000000       0x18 /usr/local/xenon/usr/lib/libxenon.a(console.o)
 .text.console_get_dimensions
                0x0000000000000000       0x2c /usr/local/xenon/usr/lib/libxenon.a(console.o)
 .text.console_close
                0x0000000000000000       0x10 /usr/local/xenon/usr/lib/libxenon.a(console.o)
 .sbss          0x0000000000000000        0x8 /usr/local/xenon/usr/lib/libxenon.a(console.o)
 .text          0x0000000000000000        0x0 /usr/local/xenon/usr/lib/libxenon.a(input.o)
 .data          0x0000000000000000        0x0 /usr/local/xenon/usr/lib/libxenon.a(input.o)
 .bss           0x0000000000000000        0x0 /usr/local/xenon/usr/lib/libxenon.a(input.o)
 .text.get_controller_data
                0x0000000000000000       0x60 /usr/local/xenon/usr/lib/libxenon.a(input.o)
 .text.set_controller_rumble
                0x0000000000000000       0x20 /usr/local/xenon/usr/lib/libxenon.a(input.o)
 .text          0x0000000000000000        0x0 /usr/local/xenon/usr/lib/libxenon.a(newlib.o)
 .data          0x0000000000000000        0x0 /usr/local/xenon/usr/lib/libxenon.a(newlib.o)
 .bss           0x0000000000000000        0x0 /usr/local/xenon/usr/lib/libxenon.a(newlib.o)
 .text.__dirreset
                0x0000000000000000       0x70 /usr/local/xenon/usr/lib/libxenon.a(newlib.o)
 .text.__dirnext
                0x0000000000000000       0x7c /usr/local/xenon/usr/lib/libxenon.a(newlib.o)
 .text.__libc_lock_init
                0x0000000000000000       0x40 /usr/local/xenon/usr/lib/libxenon.a(newlib.o)
 .text.__libc_lock_close
                0x0000000000000000       0x40 /usr/local/xenon/usr/lib/libxenon.a(newlib.o)
 .text.__libc_lock_release
                0x0000000000000000       0x40 /usr/local/xenon/usr/lib/libxenon.a(newlib.o)
 .text.__libc_lock_acquire
                0x0000000000000000       0x40 /usr/local/xenon/usr/lib/libxenon.a(newlib.o)
 .text.execve   0x0000000000000000       0x18 /usr/local/xenon/usr/lib/libxenon.a(newlib.o)
 .text.fork     0x0000000000000000       0x18 /usr/local/xenon/usr/lib/libxenon.a(newlib.o)
 .text.getpid   0x0000000000000000       0x18 /usr/local/xenon/usr/lib/libxenon.a(newlib.o)
 .text.getrusage
                0x0000000000000000       0x18 /usr/local/xenon/usr/lib/libxenon.a(newlib.o)
 .text.gettimeofday
                0x0000000000000000       0x58 /usr/local/xenon/usr/lib/libxenon.a(newlib.o)
 .text.kill     0x0000000000000000       0x18 /usr/local/xenon/usr/lib/libxenon.a(newlib.o)
 .text.getuid   0x0000000000000000        0x8 /usr/local/xenon/usr/lib/libxenon.a(newlib.o)
 .text.geteuid  0x0000000000000000        0x8 /usr/local/xenon/usr/lib/libxenon.a(newlib.o)
 .text.getgid   0x0000000000000000        0x8 /usr/local/xenon/usr/lib/libxenon.a(newlib.o)
 .text.getegid  0x0000000000000000        0x8 /usr/local/xenon/usr/lib/libxenon.a(newlib.o)
 .text.setuid   0x0000000000000000       0x18 /usr/local/xenon/usr/lib/libxenon.a(newlib.o)
 .text.setgid   0x0000000000000000       0x18 /usr/local/xenon/usr/lib/libxenon.a(newlib.o)
 .text.getppid  0x0000000000000000        0x8 /usr/local/xenon/usr/lib/libxenon.a(newlib.o)
 .text.getpwuid
                0x0000000000000000       0x44 /usr/local/xenon/usr/lib/libxenon.a(newlib.o)
 .text.getpwnam
                0x0000000000000000       0x44 /usr/local/xenon/usr/lib/libxenon.a(newlib.o)
 .text.getgrnam
                0x0000000000000000       0x44 /usr/local/xenon/usr/lib/libxenon.a(newlib.o)
 .text.getgrgid
                0x0000000000000000       0x44 /usr/local/xenon/usr/lib/libxenon.a(newlib.o)
 .text.__alloc_handle
                0x0000000000000000       0x78 /usr/local/xenon/usr/lib/libxenon.a(newlib.o)
 .text.setDefaultDevice
                0x0000000000000000       0x18 /usr/local/xenon/usr/lib/libxenon.a(newlib.o)
 .text.FindDevice
                0x0000000000000000       0xd0 /usr/local/xenon/usr/lib/libxenon.a(newlib.o)
 .text.RemoveDevice
                0x0000000000000000       0x4c /usr/local/xenon/usr/lib/libxenon.a(newlib.o)
 .text.AddDevice
                0x0000000000000000       0xb0 /usr/local/xenon/usr/lib/libxenon.a(newlib.o)
 .text.GetDeviceOpTab
                0x0000000000000000       0x40 /usr/local/xenon/usr/lib/libxenon.a(newlib.o)
 .text.open     0x0000000000000000       0xd4 /usr/local/xenon/usr/lib/libxenon.a(newlib.o)
 .text.stat     0x0000000000000000       0x78 /usr/local/xenon/usr/lib/libxenon.a(newlib.o)
 .text.statvfs  0x0000000000000000       0x78 /usr/local/xenon/usr/lib/libxenon.a(newlib.o)
 .text.fsync    0x0000000000000000       0x7c /usr/local/xenon/usr/lib/libxenon.a(newlib.o)
 .text.ftruncate
                0x0000000000000000       0x84 /usr/local/xenon/usr/lib/libxenon.a(newlib.o)
 .text.link     0x0000000000000000       0x8c /usr/local/xenon/usr/lib/libxenon.a(newlib.o)
 .text.rename   0x0000000000000000       0x8c /usr/local/xenon/usr/lib/libxenon.a(newlib.o)
 .text.unlink   0x0000000000000000       0x70 /usr/local/xenon/usr/lib/libxenon.a(newlib.o)
 .text._concatenate_path
                0x0000000000000000      0x1b0 /usr/local/xenon/usr/lib/libxenon.a(newlib.o)
 .text.chdir    0x0000000000000000      0x13c /usr/local/xenon/usr/lib/libxenon.a(newlib.o)
 .text.getcwd   0x0000000000000000       0x78 /usr/local/xenon/usr/lib/libxenon.a(newlib.o)
 .text.chmod    0x0000000000000000       0x78 /usr/local/xenon/usr/lib/libxenon.a(newlib.o)
 .text.fchmod   0x0000000000000000       0x7c /usr/local/xenon/usr/lib/libxenon.a(newlib.o)
 .text.opendir  0x0000000000000000      0x10c /usr/local/xenon/usr/lib/libxenon.a(newlib.o)
 .text.closedir
                0x0000000000000000       0xa0 /usr/local/xenon/usr/lib/libxenon.a(newlib.o)
 .text.readdir  0x0000000000000000       0xe8 /usr/local/xenon/usr/lib/libxenon.a(newlib.o)
 .text.rewinddir
                0x0000000000000000       0x34 /usr/local/xenon/usr/lib/libxenon.a(newlib.o)
 .text.seekdir  0x0000000000000000       0x7c /usr/local/xenon/usr/lib/libxenon.a(newlib.o)
 .text.telldir  0x0000000000000000       0x18 /usr/local/xenon/usr/lib/libxenon.a(newlib.o)
 .text.mkdir    0x0000000000000000       0x70 /usr/local/xenon/usr/lib/libxenon.a(newlib.o)
 .text.bdev_enum
                0x0000000000000000       0x84 /usr/local/xenon/usr/lib/libxenon.a(newlib.o)
 .data._current_working_directory
                0x0000000000000000      0x800 /usr/local/xenon/usr/lib/libxenon.a(newlib.o)
 .sdata.DIRECTORY_THIS
                0x0000000000000000        0x2 /usr/local/xenon/usr/lib/libxenon.a(newlib.o)
 .rodata.__FUNCTION__.3743
                0x0000000000000000        0x9 /usr/local/xenon/usr/lib/libxenon.a(newlib.o)
 .rodata.__FUNCTION__.3739
                0x0000000000000000        0x9 /usr/local/xenon/usr/lib/libxenon.a(newlib.o)
 .rodata.__FUNCTION__.3747
                0x0000000000000000        0x9 /usr/local/xenon/usr/lib/libxenon.a(newlib.o)
 .sdata.DIRECTORY_PARENT
                0x0000000000000000        0x3 /usr/local/xenon/usr/lib/libxenon.a(newlib.o)
 .sdata.DIRECTORY_SEPARATOR
                0x0000000000000000        0x2 /usr/local/xenon/usr/lib/libxenon.a(newlib.o)
 .data.defaultDevice
                0x0000000000000000        0x4 /usr/local/xenon/usr/lib/libxenon.a(newlib.o)
 .rodata.__FUNCTION__.3751
                0x0000000000000000        0x9 /usr/local/xenon/usr/lib/libxenon.a(newlib.o)
 .text          0x0000000000000000        0x0 /usr/local/xenon/usr/lib/libxenon.a(xenon_syscalls.o)
 .data          0x0000000000000000        0x0 /usr/local/xenon/usr/lib/libxenon.a(xenon_syscalls.o)
 .bss           0x0000000000000000        0x0 /usr/local/xenon/usr/lib/libxenon.a(xenon_syscalls.o)
 .data          0x0000000000000000        0x0 /usr/local/xenon/usr/lib/libxenon.a(atomic.o)
 .bss           0x0000000000000000        0x0 /usr/local/xenon/usr/lib/libxenon.a(atomic.o)
 .data          0x0000000000000000        0x0 /usr/local/xenon/usr/lib/libxenon.a(cache.o)
 .bss           0x0000000000000000        0x0 /usr/local/xenon/usr/lib/libxenon.a(cache.o)
 .text          0x0000000000000000        0x0 /usr/local/xenon/usr/lib/libxenon.a(except.o)
 .data          0x0000000000000000        0x0 /usr/local/xenon/usr/lib/libxenon.a(except.o)
 .bss           0x0000000000000000        0x0 /usr/local/xenon/usr/lib/libxenon.a(except.o)
 .text          0x0000000000000000        0x0 /usr/local/xenon/usr/lib/libxenon.a(c_except.o)
 .data          0x0000000000000000        0x0 /usr/local/xenon/usr/lib/libxenon.a(c_except.o)
 .bss           0x0000000000000000        0x0 /usr/local/xenon/usr/lib/libxenon.a(c_except.o)
 .text          0x0000000000000000        0x0 /usr/local/xenon/usr/lib/libxenon.a(vm.o)
 .data          0x0000000000000000        0x0 /usr/local/xenon/usr/lib/libxenon.a(vm.o)
 .bss           0x0000000000000000        0x0 /usr/local/xenon/usr/lib/libxenon.a(vm.o)
 .text.vm_common_check_get_idx
                0x0000000000000000       0xb4 /usr/local/xenon/usr/lib/libxenon.a(vm.o)
 .text.vm_create_user_mapping
                0x0000000000000000       0xb0 /usr/local/xenon/usr/lib/libxenon.a(vm.o)
 .text.vm_destroy_user_mapping
                0x0000000000000000       0x68 /usr/local/xenon/usr/lib/libxenon.a(vm.o)
 .text.vm_set_user_mapping_flags
                0x0000000000000000       0x7c /usr/local/xenon/usr/lib/libxenon.a(vm.o)
 .text.vm_set_user_mapping_segfault_handler
                0x0000000000000000        0xc /usr/local/xenon/usr/lib/libxenon.a(vm.o)
 .rodata.__FUNCTION__.2692
                0x0000000000000000       0x18 /usr/local/xenon/usr/lib/libxenon.a(vm.o)
 .rodata.__FUNCTION__.2699
                0x0000000000000000       0x17 /usr/local/xenon/usr/lib/libxenon.a(vm.o)
 .rodata.str1.1
                0x0000000000000000       0x9d /usr/local/xenon/usr/lib/libxenon.a(vm.o)
 .text          0x0000000000000000        0x0 /usr/local/xenon/usr/lib/libxenon.a(usbctrl.o)
 .data          0x0000000000000000        0x0 /usr/local/xenon/usr/lib/libxenon.a(usbctrl.o)
 .bss           0x0000000000000000        0x0 /usr/local/xenon/usr/lib/libxenon.a(usbctrl.o)
 .text.usbctrl_set_rumble
                0x0000000000000000      0x128 /usr/local/xenon/usr/lib/libxenon.a(usbctrl.o)
 .text          0x0000000000000000        0x0 /usr/local/xenon/usr/lib/libxenon.a(usbd.o)
 .data          0x0000000000000000        0x0 /usr/local/xenon/usr/lib/libxenon.a(usbd.o)
 .bss           0x0000000000000000        0x0 /usr/local/xenon/usr/lib/libxenon.a(usbd.o)
 .text.usb_destroy_pipe
                0x0000000000000000       0x6c /usr/local/xenon/usr/lib/libxenon.a(usbd.o)
 .text.usb_cancel_request
                0x0000000000000000       0x2c /usr/local/xenon/usr/lib/libxenon.a(usbd.o)
 .text.usb_make_sync_request
                0x0000000000000000       0x38 /usr/local/xenon/usr/lib/libxenon.a(usbd.o)
 .text          0x0000000000000000        0x0 /usr/local/xenon/usr/lib/libxenon.a(usbdevs.o)
 .data          0x0000000000000000        0x0 /usr/local/xenon/usr/lib/libxenon.a(usbdevs.o)
 .bss           0x0000000000000000        0x0 /usr/local/xenon/usr/lib/libxenon.a(usbdevs.o)
 .text          0x0000000000000000        0x0 /usr/local/xenon/usr/lib/libxenon.a(usbhid.o)
 .data          0x0000000000000000        0x0 /usr/local/xenon/usr/lib/libxenon.a(usbhid.o)
 .bss           0x0000000000000000        0x0 /usr/local/xenon/usr/lib/libxenon.a(usbhid.o)
 .text          0x0000000000000000        0x0 /usr/local/xenon/usr/lib/libxenon.a(usbhub.o)
 .data          0x0000000000000000        0x0 /usr/local/xenon/usr/lib/libxenon.a(usbhub.o)
 .bss           0x0000000000000000        0x0 /usr/local/xenon/usr/lib/libxenon.a(usbhub.o)
 .text.usbhub_dumpbus1
                0x0000000000000000       0x8c /usr/local/xenon/usr/lib/libxenon.a(usbhub.o)
 .text.usbhub_dumpbus
                0x0000000000000000       0x30 /usr/local/xenon/usr/lib/libxenon.a(usbhub.o)
 .text          0x0000000000000000        0x0 /usr/local/xenon/usr/lib/libxenon.a(usbmain.o)
 .data          0x0000000000000000        0x0 /usr/local/xenon/usr/lib/libxenon.a(usbmain.o)
 .bss           0x0000000000000000        0x0 /usr/local/xenon/usr/lib/libxenon.a(usbmain.o)
 .text          0x0000000000000000        0x0 /usr/local/xenon/usr/lib/libxenon.a(tinyehci.o)
 .data          0x0000000000000000        0x0 /usr/local/xenon/usr/lib/libxenon.a(tinyehci.o)
 .bss           0x0000000000000000        0x0 /usr/local/xenon/usr/lib/libxenon.a(tinyehci.o)
 .text.USBStorage_True
                0x0000000000000000        0x8 /usr/local/xenon/usr/lib/libxenon.a(tinyehci.o)
 .text.USBStorage_Inserted
                0x0000000000000000        0xc /usr/local/xenon/usr/lib/libxenon.a(tinyehci.o)
 .text.debug_qtds
                0x0000000000000000       0x4c /usr/local/xenon/usr/lib/libxenon.a(tinyehci.o)
 .text.dump_qh  0x0000000000000000       0x4c /usr/local/xenon/usr/lib/libxenon.a(tinyehci.o)
 .text.ehci_release_ports
                0x0000000000000000       0xb0 /usr/local/xenon/usr/lib/libxenon.a(tinyehci.o)
 .text.ehci_open_device
                0x0000000000000000       0x80 /usr/local/xenon/usr/lib/libxenon.a(tinyehci.o)
 .text.ehci_close_device
                0x0000000000000000       0x18 /usr/local/xenon/usr/lib/libxenon.a(tinyehci.o)
 .text.ehci_fd_to_dev
                0x0000000000000000       0x40 /usr/local/xenon/usr/lib/libxenon.a(tinyehci.o)
 .text.ehci_get_device_list
                0x0000000000000000       0x88 /usr/local/xenon/usr/lib/libxenon.a(tinyehci.o)
 .text.USB_WriteBlkMsg
                0x0000000000000000        0x4 /usr/local/xenon/usr/lib/libxenon.a(tinyehci.o)
 .text.USB_WriteCtrlMsg
                0x0000000000000000        0x4 /usr/local/xenon/usr/lib/libxenon.a(tinyehci.o)
 .text.ehci_reset_device
                0x0000000000000000        0x8 /usr/local/xenon/usr/lib/libxenon.a(tinyehci.o)
 .text.USBStorage_GetMaxLUN
                0x0000000000000000        0x8 /usr/local/xenon/usr/lib/libxenon.a(tinyehci.o)
 .text.USBStorage_Reset
                0x0000000000000000        0x4 /usr/local/xenon/usr/lib/libxenon.a(tinyehci.o)
 .text.USBStorage_Read
                0x0000000000000000      0x158 /usr/local/xenon/usr/lib/libxenon.a(tinyehci.o)
 .text.USBStorage_Write
                0x0000000000000000      0x158 /usr/local/xenon/usr/lib/libxenon.a(tinyehci.o)
 .text.USBStorage_Read_Stress
                0x0000000000000000       0xbc /usr/local/xenon/usr/lib/libxenon.a(tinyehci.o)
 .text.USBStorage_Umount
                0x0000000000000000       0x8c /usr/local/xenon/usr/lib/libxenon.a(tinyehci.o)
 .text.USBStorage_Get_Capacity
                0x0000000000000000       0x60 /usr/local/xenon/usr/lib/libxenon.a(tinyehci.o)
 .text.unplug_procedure
                0x0000000000000000       0xd4 /usr/local/xenon/usr/lib/libxenon.a(tinyehci.o)
 .text.USBStorage_Write_Sectors
                0x0000000000000000      0x108 /usr/local/xenon/usr/lib/libxenon.a(tinyehci.o)
 .text.USBStorage_Read_Sectors
                0x0000000000000000      0x108 /usr/local/xenon/usr/lib/libxenon.a(tinyehci.o)
 .data.usb2mass_ops
                0x0000000000000000       0x20 /usr/local/xenon/usr/lib/libxenon.a(tinyehci.o)
 .text          0x0000000000000000        0x0 /usr/local/xenon/usr/lib/libxenon.a(xenon_smc.o)
 .data          0x0000000000000000        0x0 /usr/local/xenon/usr/lib/libxenon.a(xenon_smc.o)
 .bss           0x0000000000000000        0x0 /usr/local/xenon/usr/lib/libxenon.a(xenon_smc.o)
 .text.xenon_smc_get_ir
                0x0000000000000000       0x14 /usr/local/xenon/usr/lib/libxenon.a(xenon_smc.o)
 .text.xenon_smc_poll
                0x0000000000000000       0x58 /usr/local/xenon/usr/lib/libxenon.a(xenon_smc.o)
 .text.xenon_smc_set_led
                0x0000000000000000       0x40 /usr/local/xenon/usr/lib/libxenon.a(xenon_smc.o)
 .text.xenon_smc_set_power_led
                0x0000000000000000       0x5c /usr/local/xenon/usr/lib/libxenon.a(xenon_smc.o)
 .text.xenon_smc_start_bootanim
                0x0000000000000000       0x4c /usr/local/xenon/usr/lib/libxenon.a(xenon_smc.o)
 .text.xenon_smc_query_sensors
                0x0000000000000000       0x78 /usr/local/xenon/usr/lib/libxenon.a(xenon_smc.o)
 .text          0x0000000000000000        0x0 /usr/local/xenon/usr/lib/libxenon.a(xenon_power.o)
 .data          0x0000000000000000        0x0 /usr/local/xenon/usr/lib/libxenon.a(xenon_power.o)
 .bss           0x0000000000000000        0x0 /usr/local/xenon/usr/lib/libxenon.a(xenon_power.o)
 .text.xenon_yield
                0x0000000000000000        0x4 /usr/local/xenon/usr/lib/libxenon.a(xenon_power.o)
 .text.xenon_get_speed
                0x0000000000000000       0x14 /usr/local/xenon/usr/lib/libxenon.a(xenon_power.o)
 .text.xenon_sleep_thread
                0x0000000000000000       0x20 /usr/local/xenon/usr/lib/libxenon.a(xenon_power.o)
 .text          0x0000000000000000        0x0 /usr/local/xenon/usr/lib/libxenon.a(xenon_uart.o)
 .data          0x0000000000000000        0x0 /usr/local/xenon/usr/lib/libxenon.a(xenon_uart.o)
 .bss           0x0000000000000000        0x0 /usr/local/xenon/usr/lib/libxenon.a(xenon_uart.o)
 .text.uart_puts
                0x0000000000000000       0x38 /usr/local/xenon/usr/lib/libxenon.a(xenon_uart.o)
 .text          0x0000000000000000        0x0 /usr/local/xenon/usr/lib/libxenon.a(xenon_sfcx.o)
 .data          0x0000000000000000        0x0 /usr/local/xenon/usr/lib/libxenon.a(xenon_sfcx.o)
 .bss           0x0000000000000000        0x0 /usr/local/xenon/usr/lib/libxenon.a(xenon_sfcx.o)
 .text.sfcx_writereg
                0x0000000000000000       0x10 /usr/local/xenon/usr/lib/libxenon.a(xenon_sfcx.o)
 .text.sfcx_readreg
                0x0000000000000000       0x10 /usr/local/xenon/usr/lib/libxenon.a(xenon_sfcx.o)
 .text.sfcx_write_page
                0x0000000000000000      0x138 /usr/local/xenon/usr/lib/libxenon.a(xenon_sfcx.o)
 .text.sfcx_read_block
                0x0000000000000000       0x88 /usr/local/xenon/usr/lib/libxenon.a(xenon_sfcx.o)
 .text.sfcx_write_block
                0x0000000000000000       0x6c /usr/local/xenon/usr/lib/libxenon.a(xenon_sfcx.o)
 .text.sfcx_erase_block
                0x0000000000000000       0xc8 /usr/local/xenon/usr/lib/libxenon.a(xenon_sfcx.o)
 .text.sfcx_calcecc
                0x0000000000000000       0xa4 /usr/local/xenon/usr/lib/libxenon.a(xenon_sfcx.o)
 .text.sfcx_get_blocknumber
                0x0000000000000000       0x64 /usr/local/xenon/usr/lib/libxenon.a(xenon_sfcx.o)
 .text.sfcx_set_blocknumber
                0x0000000000000000       0x60 /usr/local/xenon/usr/lib/libxenon.a(xenon_sfcx.o)
 .text.sfcx_get_blockversion
                0x0000000000000000       0xac /usr/local/xenon/usr/lib/libxenon.a(xenon_sfcx.o)
 .text.sfcx_set_blockversion
                0x0000000000000000       0x80 /usr/local/xenon/usr/lib/libxenon.a(xenon_sfcx.o)
 .text.sfcx_set_pagevalid
                0x0000000000000000       0x48 /usr/local/xenon/usr/lib/libxenon.a(xenon_sfcx.o)
 .text.sfcx_set_pageinvalid
                0x0000000000000000       0x54 /usr/local/xenon/usr/lib/libxenon.a(xenon_sfcx.o)
 .text.sfcx_is_pagevalid
                0x0000000000000000       0x54 /usr/local/xenon/usr/lib/libxenon.a(xenon_sfcx.o)
 .text.sfcx_is_pagezeroed
                0x0000000000000000       0x48 /usr/local/xenon/usr/lib/libxenon.a(xenon_sfcx.o)
 .text.sfcx_is_pageerased
                0x0000000000000000       0x48 /usr/local/xenon/usr/lib/libxenon.a(xenon_sfcx.o)
 .text.sfcx_block_to_address
                0x0000000000000000       0x10 /usr/local/xenon/usr/lib/libxenon.a(xenon_sfcx.o)
 .text.sfcx_address_to_block
                0x0000000000000000       0x10 /usr/local/xenon/usr/lib/libxenon.a(xenon_sfcx.o)
 .text.sfcx_block_to_rawaddress
                0x0000000000000000       0x10 /usr/local/xenon/usr/lib/libxenon.a(xenon_sfcx.o)
 .text.sfcx_rawaddress_to_block
                0x0000000000000000       0x10 /usr/local/xenon/usr/lib/libxenon.a(xenon_sfcx.o)
 .text.rawflash_writeImage
                0x0000000000000000      0x17c /usr/local/xenon/usr/lib/libxenon.a(xenon_sfcx.o)
 .text.try_rawflash
                0x0000000000000000      0x130 /usr/local/xenon/usr/lib/libxenon.a(xenon_sfcx.o)
 .sbss          0x0000000000000000        0x4 /usr/local/xenon/usr/lib/libxenon.a(xenon_sfcx.o)
 .text          0x0000000000000000        0x0 /usr/local/xenon/usr/lib/libxenon.a(xenon_config.o)
 .data          0x0000000000000000        0x0 /usr/local/xenon/usr/lib/libxenon.a(xenon_config.o)
 .bss           0x0000000000000000        0x0 /usr/local/xenon/usr/lib/libxenon.a(xenon_config.o)
 .text          0x0000000000000000        0x0 /usr/local/xenon/usr/lib/libxenon.a(edram.o)
 .data          0x0000000000000000        0x0 /usr/local/xenon/usr/lib/libxenon.a(edram.o)
 .bss           0x0000000000000000        0x0 /usr/local/xenon/usr/lib/libxenon.a(edram.o)
 .text.edram_bec
                0x0000000000000000      0xee0 /usr/local/xenon/usr/lib/libxenon.a(edram.o)
 .text          0x0000000000000000        0x0 /usr/local/xenon/usr/lib/libxenon.a(xe.o)
 .data          0x0000000000000000        0x0 /usr/local/xenon/usr/lib/libxenon.a(xe.o)
 .bss           0x0000000000000000        0x0 /usr/local/xenon/usr/lib/libxenon.a(xe.o)
 .text.Xe_pFree
                0x0000000000000000       0x24 /usr/local/xenon/usr/lib/libxenon.a(xe.o)
 .text.Xe_pSetBin
                0x0000000000000000       0x90 /usr/local/xenon/usr/lib/libxenon.a(xe.o)
 .text.Xe_pWaitUntilIdle
                0x0000000000000000       0x2c /usr/local/xenon/usr/lib/libxenon.a(xe.o)
 .text.Xe_pDrawNonIndexed
                0x0000000000000000       0x4c /usr/local/xenon/usr/lib/libxenon.a(xe.o)
 .text.Xe_pDrawIndexedPrimitive
                0x0000000000000000       0xb8 /usr/local/xenon/usr/lib/libxenon.a(xe.o)
 .text.Xe_pSetIndexOffset
                0x0000000000000000       0x2c /usr/local/xenon/usr/lib/libxenon.a(xe.o)
 .text.Xe_pWaitReady2
                0x0000000000000000       0x18 /usr/local/xenon/usr/lib/libxenon.a(xe.o)
 .text.Xe_pInit1
                0x0000000000000000       0x74 /usr/local/xenon/usr/lib/libxenon.a(xe.o)
 .text.Xe_DirtyAluConstant
                0x0000000000000000       0x58 /usr/local/xenon/usr/lib/libxenon.a(xe.o)
 .text.Xe_DirtyFetch
                0x0000000000000000       0x60 /usr/local/xenon/usr/lib/libxenon.a(xe.o)
 .text.Xe_pUploadShaderConstants
                0x0000000000000000       0xe4 /usr/local/xenon/usr/lib/libxenon.a(xe.o)
 .text.Xe_pInvalidateGpuCacheAll
                0x0000000000000000       0xc0 /usr/local/xenon/usr/lib/libxenon.a(xe.o)
 .text.Xe_GetShaderLength
                0x0000000000000000       0x20 /usr/local/xenon/usr/lib/libxenon.a(xe.o)
 .text.Xe_SetRenderTarget
                0x0000000000000000       0x5c /usr/local/xenon/usr/lib/libxenon.a(xe.o)
 .text.Xe_pSetEDRAMLayout
                0x0000000000000000       0x78 /usr/local/xenon/usr/lib/libxenon.a(xe.o)
 .text.VERTEX_FETCH
                0x0000000000000000       0x1c /usr/local/xenon/usr/lib/libxenon.a(xe.o)
 .text.TEXTURE_FETCH
                0x0000000000000000      0x104 /usr/local/xenon/usr/lib/libxenon.a(xe.o)
 .text.Xe_pLoadShader
                0x0000000000000000       0x40 /usr/local/xenon/usr/lib/libxenon.a(xe.o)
 .text.Xe_pAlign
                0x0000000000000000       0x30 /usr/local/xenon/usr/lib/libxenon.a(xe.o)
 .text.Xe_pStep
                0x0000000000000000        0xc /usr/local/xenon/usr/lib/libxenon.a(xe.o)
 .text.Xe_pStuff
                0x0000000000000000       0x88 /usr/local/xenon/usr/lib/libxenon.a(xe.o)
 .text.Xe_pLock
                0x0000000000000000       0x8c /usr/local/xenon/usr/lib/libxenon.a(xe.o)
 .text.Xe_pUnlock
                0x0000000000000000       0x74 /usr/local/xenon/usr/lib/libxenon.a(xe.o)
 .text.Xe_pVBFNrComponents
                0x0000000000000000       0x6c /usr/local/xenon/usr/lib/libxenon.a(xe.o)
 .text.Xe_VBFCalcSize
                0x0000000000000000       0x78 /usr/local/xenon/usr/lib/libxenon.a(xe.o)
 .text.Xe_VBFCalcStride
                0x0000000000000000       0x5c /usr/local/xenon/usr/lib/libxenon.a(xe.o)
 .text.Xe_ShaderApplyVFetchPatches
                0x0000000000000000      0x298 /usr/local/xenon/usr/lib/libxenon.a(xe.o)
 .text.Xe_LoadShaderFromMemory
                0x0000000000000000       0x78 /usr/local/xenon/usr/lib/libxenon.a(xe.o)
 .text.Xe_LoadShader
                0x0000000000000000       0xc0 /usr/local/xenon/usr/lib/libxenon.a(xe.o)
 .text.Xe_pReset
                0x0000000000000000       0xc0 /usr/local/xenon/usr/lib/libxenon.a(xe.o)
 .text.Xe_pRBMayKick
                0x0000000000000000       0x20 /usr/local/xenon/usr/lib/libxenon.a(xe.o)
 .text.Xe_InstantiateShader
                0x0000000000000000       0xcc /usr/local/xenon/usr/lib/libxenon.a(xe.o)
 .text.Xe_GetFramebufferSurface
                0x0000000000000000        0x8 /usr/local/xenon/usr/lib/libxenon.a(xe.o)
 .text.Xe_pUploadALUConstants
                0x0000000000000000      0x104 /usr/local/xenon/usr/lib/libxenon.a(xe.o)
 .text.Xe_pUploadFetchConstants
                0x0000000000000000      0x10c /usr/local/xenon/usr/lib/libxenon.a(xe.o)
 .text.Xe_pUploadClipPlane
                0x0000000000000000       0x64 /usr/local/xenon/usr/lib/libxenon.a(xe.o)
 .text.Xe_pUploadIntegerConstants
                0x0000000000000000       0x64 /usr/local/xenon/usr/lib/libxenon.a(xe.o)
 .text.Xe_pUploadControl
                0x0000000000000000       0x64 /usr/local/xenon/usr/lib/libxenon.a(xe.o)
 .text.Xe_pUploadShader
                0x0000000000000000       0xf0 /usr/local/xenon/usr/lib/libxenon.a(xe.o)
 .text.Xe_pInitControl
                0x0000000000000000       0x90 /usr/local/xenon/usr/lib/libxenon.a(xe.o)
 .text.Xe_SetZFunc
                0x0000000000000000       0x28 /usr/local/xenon/usr/lib/libxenon.a(xe.o)
 .text.Xe_SetZWrite
                0x0000000000000000       0x28 /usr/local/xenon/usr/lib/libxenon.a(xe.o)
 .text.Xe_SetZEnable
                0x0000000000000000       0x28 /usr/local/xenon/usr/lib/libxenon.a(xe.o)
 .text.Xe_SetFillMode
                0x0000000000000000       0x34 /usr/local/xenon/usr/lib/libxenon.a(xe.o)
 .text.Xe_SetBlendControl
                0x0000000000000000       0x3c /usr/local/xenon/usr/lib/libxenon.a(xe.o)
 .text.Xe_SetSrcBlend
                0x0000000000000000       0x60 /usr/local/xenon/usr/lib/libxenon.a(xe.o)
 .text.Xe_SetDestBlend
                0x0000000000000000       0x68 /usr/local/xenon/usr/lib/libxenon.a(xe.o)
 .text.Xe_SetBlendOp
                0x0000000000000000       0x68 /usr/local/xenon/usr/lib/libxenon.a(xe.o)
 .text.Xe_SetSrcBlendAlpha
                0x0000000000000000       0x68 /usr/local/xenon/usr/lib/libxenon.a(xe.o)
 .text.Xe_SetDestBlendAlpha
                0x0000000000000000       0x68 /usr/local/xenon/usr/lib/libxenon.a(xe.o)
 .text.Xe_SetBlendOpAlpha
                0x0000000000000000       0x68 /usr/local/xenon/usr/lib/libxenon.a(xe.o)
 .text.Xe_SetCullMode
                0x0000000000000000       0x60 /usr/local/xenon/usr/lib/libxenon.a(xe.o)
 .text.Xe_SetAlphaTestEnable
                0x0000000000000000       0x34 /usr/local/xenon/usr/lib/libxenon.a(xe.o)
 .text.Xe_SetAlphaFunc
                0x0000000000000000       0x60 /usr/local/xenon/usr/lib/libxenon.a(xe.o)
 .text.Xe_SetAlphaRef
                0x0000000000000000       0x28 /usr/local/xenon/usr/lib/libxenon.a(xe.o)
 .text.Xe_SetStencilFunc
                0x0000000000000000       0x98 /usr/local/xenon/usr/lib/libxenon.a(xe.o)
 .text.Xe_SetStencilEnable
                0x0000000000000000       0x60 /usr/local/xenon/usr/lib/libxenon.a(xe.o)
 .text.Xe_SetStencilOp
                0x0000000000000000      0x174 /usr/local/xenon/usr/lib/libxenon.a(xe.o)
 .text.Xe_SetStencilRef
                0x0000000000000000       0x48 /usr/local/xenon/usr/lib/libxenon.a(xe.o)
 .text.Xe_SetStencilMask
                0x0000000000000000       0x58 /usr/local/xenon/usr/lib/libxenon.a(xe.o)
 .text.Xe_SetStencilWriteMask
                0x0000000000000000       0x58 /usr/local/xenon/usr/lib/libxenon.a(xe.o)
 .text.Xe_SetScissor
                0x0000000000000000       0x44 /usr/local/xenon/usr/lib/libxenon.a(xe.o)
 .text.Xe_SetClipPlaneEnables
                0x0000000000000000       0x24 /usr/local/xenon/usr/lib/libxenon.a(xe.o)
 .text.Xe_SetClipPlane
                0x0000000000000000       0x68 /usr/local/xenon/usr/lib/libxenon.a(xe.o)
 .text.Xe_InvalidateState
                0x0000000000000000       0x14 /usr/local/xenon/usr/lib/libxenon.a(xe.o)
 .text.Xe_SetShader
                0x0000000000000000       0xa8 /usr/local/xenon/usr/lib/libxenon.a(xe.o)
 .text.Xe_pSetState
                0x0000000000000000      0x34c /usr/local/xenon/usr/lib/libxenon.a(xe.o)
 .text.Xe_SetTexture
                0x0000000000000000       0xb0 /usr/local/xenon/usr/lib/libxenon.a(xe.o)
 .text.Xe_SetClearColor
                0x0000000000000000        0x8 /usr/local/xenon/usr/lib/libxenon.a(xe.o)
 .text.Xe_CreateVertexBuffer
                0x0000000000000000       0x84 /usr/local/xenon/usr/lib/libxenon.a(xe.o)
 .text.Xe_DestroyVertexBuffer
                0x0000000000000000       0x30 /usr/local/xenon/usr/lib/libxenon.a(xe.o)
 .text.Xe_VBPoolAlloc
                0x0000000000000000       0x48 /usr/local/xenon/usr/lib/libxenon.a(xe.o)
 .text.Xe_VBPoolAdd
                0x0000000000000000       0x24 /usr/local/xenon/usr/lib/libxenon.a(xe.o)
 .text.Xe_VBReclaim
                0x0000000000000000       0x30 /usr/local/xenon/usr/lib/libxenon.a(xe.o)
 .text.Xe_Sync  0x0000000000000000       0x34 /usr/local/xenon/usr/lib/libxenon.a(xe.o)
 .text.Xe_VBBegin
                0x0000000000000000       0x4c /usr/local/xenon/usr/lib/libxenon.a(xe.o)
 .text.Xe_VBPut
                0x0000000000000000      0x10c /usr/local/xenon/usr/lib/libxenon.a(xe.o)
 .text.Xe_VBEnd
                0x0000000000000000       0x70 /usr/local/xenon/usr/lib/libxenon.a(xe.o)
 .text.Xe_ResolveInto
                0x0000000000000000      0x79c /usr/local/xenon/usr/lib/libxenon.a(xe.o)
 .text.Xe_Resolve
                0x0000000000000000       0x10 /usr/local/xenon/usr/lib/libxenon.a(xe.o)
 .text.Xe_Clear
                0x0000000000000000       0x50 /usr/local/xenon/usr/lib/libxenon.a(xe.o)
 .text.Xe_pCalcVtxCount
                0x0000000000000000       0x80 /usr/local/xenon/usr/lib/libxenon.a(xe.o)
 .rodata.Xe_pCalcVtxCount
                0x0000000000000000       0x34 /usr/local/xenon/usr/lib/libxenon.a(xe.o)
 .text.Xe_DrawIndexedPrimitive
                0x0000000000000000      0x128 /usr/local/xenon/usr/lib/libxenon.a(xe.o)
 .text.Xe_DrawPrimitive
                0x0000000000000000       0xfc /usr/local/xenon/usr/lib/libxenon.a(xe.o)
 .text.Xe_SetStreamSource
                0x0000000000000000       0x78 /usr/local/xenon/usr/lib/libxenon.a(xe.o)
 .text.Xe_Draw  0x0000000000000000      0x138 /usr/local/xenon/usr/lib/libxenon.a(xe.o)
 .text.Xe_SetIndices
                0x0000000000000000        0x8 /usr/local/xenon/usr/lib/libxenon.a(xe.o)
 .text.Xe_CreateIndexBuffer
                0x0000000000000000       0x6c /usr/local/xenon/usr/lib/libxenon.a(xe.o)
 .text.Xe_DestroyIndexBuffer
                0x0000000000000000       0x30 /usr/local/xenon/usr/lib/libxenon.a(xe.o)
 .text.Xe_VB_Lock
                0x0000000000000000       0x50 /usr/local/xenon/usr/lib/libxenon.a(xe.o)
 .text.Xe_VB_Unlock
                0x0000000000000000        0x8 /usr/local/xenon/usr/lib/libxenon.a(xe.o)
 .text.Xe_IB_Lock
                0x0000000000000000       0x50 /usr/local/xenon/usr/lib/libxenon.a(xe.o)
 .text.Xe_IB_Unlock
                0x0000000000000000        0x8 /usr/local/xenon/usr/lib/libxenon.a(xe.o)
 .text.Xe_SetVertexShaderConstantF
                0x0000000000000000       0x5c /usr/local/xenon/usr/lib/libxenon.a(xe.o)
 .text.Xe_SetPixelShaderConstantF
                0x0000000000000000       0x5c /usr/local/xenon/usr/lib/libxenon.a(xe.o)
 .text.Xe_SetVertexShaderConstantB
                0x0000000000000000       0x48 /usr/local/xenon/usr/lib/libxenon.a(xe.o)
 .text.Xe_SetPixelShaderConstantB
                0x0000000000000000       0x4c /usr/local/xenon/usr/lib/libxenon.a(xe.o)
 .text.Xe_CreateTexture
                0x0000000000000000       0xf0 /usr/local/xenon/usr/lib/libxenon.a(xe.o)
 .text.Xe_DestroyTexture
                0x0000000000000000       0x30 /usr/local/xenon/usr/lib/libxenon.a(xe.o)
 .text.Xe_Surface_LockRect
                0x0000000000000000       0x80 /usr/local/xenon/usr/lib/libxenon.a(xe.o)
 .text.Xe_Surface_Unlock
                0x0000000000000000        0x8 /usr/local/xenon/usr/lib/libxenon.a(xe.o)
 .text.Xe_IsVBlank
                0x0000000000000000       0x10 /usr/local/xenon/usr/lib/libxenon.a(xe.o)
 .rodata        0x0000000000000000       0x18 /usr/local/xenon/usr/lib/libxenon.a(xe.o)
 .rodata.__FUNCTION__.4178
                0x0000000000000000       0x1c /usr/local/xenon/usr/lib/libxenon.a(xe.o)
 .rodata.CSWTCH.67
                0x0000000000000000       0x19 /usr/local/xenon/usr/lib/libxenon.a(xe.o)
 .rodata.__FUNCTION__.4729
                0x0000000000000000       0x11 /usr/local/xenon/usr/lib/libxenon.a(xe.o)
 .rodata.__FUNCTION__.4427
                0x0000000000000000        0xf /usr/local/xenon/usr/lib/libxenon.a(xe.o)
 .rodata.__FUNCTION__.4432
                0x0000000000000000       0x10 /usr/local/xenon/usr/lib/libxenon.a(xe.o)
 .rodata.__FUNCTION__.4437
                0x0000000000000000        0xe /usr/local/xenon/usr/lib/libxenon.a(xe.o)
 .rodata.__FUNCTION__.4442
                0x0000000000000000       0x14 /usr/local/xenon/usr/lib/libxenon.a(xe.o)
 .rodata.__FUNCTION__.4447
                0x0000000000000000       0x15 /usr/local/xenon/usr/lib/libxenon.a(xe.o)
 .rodata.__FUNCTION__.4452
                0x0000000000000000       0x13 /usr/local/xenon/usr/lib/libxenon.a(xe.o)
 .rodata.__FUNCTION__.4634
                0x0000000000000000       0x18 /usr/local/xenon/usr/lib/libxenon.a(xe.o)
 .rodata.__FUNCTION__.4457
                0x0000000000000000        0xf /usr/local/xenon/usr/lib/libxenon.a(xe.o)
 .rodata.__FUNCTION__.4643
                0x0000000000000000       0x11 /usr/local/xenon/usr/lib/libxenon.a(xe.o)
 .rodata.__FUNCTION__.3949
                0x0000000000000000       0x19 /usr/local/xenon/usr/lib/libxenon.a(xe.o)
 .rodata.__FUNCTION__.4466
                0x0000000000000000       0x10 /usr/local/xenon/usr/lib/libxenon.a(xe.o)
 .rodata.__FUNCTION__.4476
                0x0000000000000000       0x12 /usr/local/xenon/usr/lib/libxenon.a(xe.o)
 .rodata.__FUNCTION__.4481
                0x0000000000000000       0x14 /usr/local/xenon/usr/lib/libxenon.a(xe.o)
 .rodata.__FUNCTION__.4522
                0x0000000000000000       0x10 /usr/local/xenon/usr/lib/libxenon.a(xe.o)
 .sbss.stat_alu_uploaded
                0x0000000000000000        0x4 /usr/local/xenon/usr/lib/libxenon.a(xe.o)
 .rodata.__FUNCTION__.4489
                0x0000000000000000       0x10 /usr/local/xenon/usr/lib/libxenon.a(xe.o)
 .rodata.__FUNCTION__.4534
                0x0000000000000000        0xd /usr/local/xenon/usr/lib/libxenon.a(xe.o)
 .rodata.cst4   0x0000000000000000        0x8 /usr/local/xenon/usr/lib/libxenon.a(xe.o)
 .rodata.__FUNCTION__.4222
                0x0000000000000000       0x15 /usr/local/xenon/usr/lib/libxenon.a(xe.o)
 .text          0x0000000000000000        0x0 /usr/local/xenon/usr/lib/libxenon.a(xenos.o)
 .data          0x0000000000000000        0x0 /usr/local/xenon/usr/lib/libxenon.a(xenos.o)
 .bss           0x0000000000000000        0x0 /usr/local/xenon/usr/lib/libxenon.a(xenos.o)
 .text          0x0000000000000000        0x0 /usr/local/xenon/usr/lib/libxenon.a(xenos_edid.o)
 .data          0x0000000000000000        0x0 /usr/local/xenon/usr/lib/libxenon.a(xenos_edid.o)
 .bss           0x0000000000000000        0x0 /usr/local/xenon/usr/lib/libxenon.a(xenos_edid.o)
 .text          0x0000000000000000        0x0 /usr/local/xenon/usr/lib/libxenon.a(enet.o)
 .data          0x0000000000000000        0x0 /usr/local/xenon/usr/lib/libxenon.a(enet.o)
 .bss           0x0000000000000000        0x0 /usr/local/xenon/usr/lib/libxenon.a(enet.o)
 .sbss          0x0000000000000000        0x4 /usr/local/xenon/usr/lib/libxenon.a(enet.o)
 .text          0x0000000000000000        0x0 /usr/local/xenon/usr/lib/libxenon.a(network.o)
 .data          0x0000000000000000        0x0 /usr/local/xenon/usr/lib/libxenon.a(network.o)
 .bss           0x0000000000000000        0x0 /usr/local/xenon/usr/lib/libxenon.a(network.o)
 .text          0x0000000000000000        0x0 /usr/local/xenon/usr/lib/libxenon.a(xb360.o)
 .data          0x0000000000000000        0x0 /usr/local/xenon/usr/lib/libxenon.a(xb360.o)
 .bss           0x0000000000000000        0x0 /usr/local/xenon/usr/lib/libxenon.a(xb360.o)
 .text.print_key
                0x0000000000000000       0x68 /usr/local/xenon/usr/lib/libxenon.a(xb360.o)
 .text.cpu_get_key
                0x0000000000000000       0x44 /usr/local/xenon/usr/lib/libxenon.a(xb360.o)
 .text.virtualfuses_read
                0x0000000000000000       0x54 /usr/local/xenon/usr/lib/libxenon.a(xb360.o)
 .text.get_virtual_cpukey
                0x0000000000000000       0x88 /usr/local/xenon/usr/lib/libxenon.a(xb360.o)
 .text.kv_read.part.0
                0x0000000000000000      0x1ec /usr/local/xenon/usr/lib/libxenon.a(xb360.o)
 .text.kv_get_key
                0x0000000000000000       0x70 /usr/local/xenon/usr/lib/libxenon.a(xb360.o)
 .text.kv_read  0x0000000000000000       0x1c /usr/local/xenon/usr/lib/libxenon.a(xb360.o)
 .text.kv_get_dvd_key
                0x0000000000000000       0xf4 /usr/local/xenon/usr/lib/libxenon.a(xb360.o)
 .text.print_cpu_dvd_keys
                0x0000000000000000       0xb0 /usr/local/xenon/usr/lib/libxenon.a(xb360.o)
 .text.updateXeLL
                0x0000000000000000      0x27c /usr/local/xenon/usr/lib/libxenon.a(xb360.o)
 .text.xenon_get_DVE
                0x0000000000000000       0x38 /usr/local/xenon/usr/lib/libxenon.a(xb360.o)
 .text.xenon_get_CPU_PVR
                0x0000000000000000        0x8 /usr/local/xenon/usr/lib/libxenon.a(xb360.o)
 .text.xenon_get_console_type
                0x0000000000000000       0x9c /usr/local/xenon/usr/lib/libxenon.a(xb360.o)
 .rodata.str1.1
                0x0000000000000000      0x385 /usr/local/xenon/usr/lib/libxenon.a(xb360.o)
 .rodata.xelloffsets
                0x0000000000000000       0x18 /usr/local/xenon/usr/lib/libxenon.a(xb360.o)
 .rodata.kvlookup
                0x0000000000000000      0x2ac /usr/local/xenon/usr/lib/libxenon.a(xb360.o)
 .text          0x0000000000000000        0x0 /usr/local/xenon/usr/lib/libxenon.a(lib_malloc.o)
 .data          0x0000000000000000        0x0 /usr/local/xenon/usr/lib/libxenon.a(lib_malloc.o)
 .bss           0x0000000000000000        0x0 /usr/local/xenon/usr/lib/libxenon.a(lib_malloc.o)
 .text.kmempoolbase
                0x0000000000000000        0x8 /usr/local/xenon/usr/lib/libxenon.a(lib_malloc.o)
 .text.kmempoolsize
                0x0000000000000000        0x8 /usr/local/xenon/usr/lib/libxenon.a(lib_malloc.o)
 .text.kmemstats
                0x0000000000000000      0x100 /usr/local/xenon/usr/lib/libxenon.a(lib_malloc.o)
 .text          0x0000000000000000        0x0 /usr/local/xenon/usr/lib/libxenon.a(io.o)
 .data          0x0000000000000000        0x0 /usr/local/xenon/usr/lib/libxenon.a(io.o)
 .bss           0x0000000000000000        0x0 /usr/local/xenon/usr/lib/libxenon.a(io.o)
 .text          0x0000000000000000        0x0 /usr/local/xenon/usr/lib/libxenon.a(time.o)
 .data          0x0000000000000000        0x0 /usr/local/xenon/usr/lib/libxenon.a(time.o)
 .bss           0x0000000000000000        0x0 /usr/local/xenon/usr/lib/libxenon.a(time.o)
 .text          0x0000000000000000        0x0 /usr/local/xenon/usr/lib/libxenon.a(dummy.o)
 .data          0x0000000000000000        0x0 /usr/local/xenon/usr/lib/libxenon.a(dummy.o)
 .bss           0x0000000000000000        0x0 /usr/local/xenon/usr/lib/libxenon.a(dummy.o)
 .text          0x0000000000000000        0x0 /usr/local/xenon/usr/lib/libxenon.a(ohci.o)
 .data          0x0000000000000000        0x0 /usr/local/xenon/usr/lib/libxenon.a(ohci.o)
 .bss           0x0000000000000000        0x0 /usr/local/xenon/usr/lib/libxenon.a(ohci.o)
 .sbss.ohcidebug
                0x0000000000000000        0x4 /usr/local/xenon/usr/lib/libxenon.a(ohci.o)
 .text          0x0000000000000000        0x0 /usr/local/xenon/usr/lib/libxenon.a(usbdebug.o)
 .data          0x0000000000000000        0x0 /usr/local/xenon/usr/lib/libxenon.a(usbdebug.o)
 .bss           0x0000000000000000        0x0 /usr/local/xenon/usr/lib/libxenon.a(usbdebug.o)
 .text.usb_dbg_dumpcfgdescr
                0x0000000000000000       0xb8 /usr/local/xenon/usr/lib/libxenon.a(usbdebug.o)
 .text.usb_dbg_dumpdevice
                0x0000000000000000       0xc8 /usr/local/xenon/usr/lib/libxenon.a(usbdebug.o)
 .text.usb_dbg_showdevice
                0x0000000000000000       0x78 /usr/local/xenon/usr/lib/libxenon.a(usbdebug.o)
 .text          0x0000000000000000        0x0 /usr/local/xenon/usr/lib/libxenon.a(usb_os.o)
 .data          0x0000000000000000        0x0 /usr/local/xenon/usr/lib/libxenon.a(usb_os.o)
 .bss           0x0000000000000000        0x0 /usr/local/xenon/usr/lib/libxenon.a(usb_os.o)
 .text          0x0000000000000000        0x0 /usr/local/xenon/usr/lib/libxenon.a(xenon_gpio.o)
 .data          0x0000000000000000        0x0 /usr/local/xenon/usr/lib/libxenon.a(xenon_gpio.o)
 .bss           0x0000000000000000        0x0 /usr/local/xenon/usr/lib/libxenon.a(xenon_gpio.o)
 .data          0x0000000000000000        0x0 /usr/local/xenon/usr/lib/libxenon.a(cpusleep.o)
 .bss           0x0000000000000000        0x0 /usr/local/xenon/usr/lib/libxenon.a(cpusleep.o)
 .text          0x0000000000000000        0x0 /usr/local/xenon/usr/lib/libxenon.a(xenon_secotp.o)
 .data          0x0000000000000000        0x0 /usr/local/xenon/usr/lib/libxenon.a(xenon_secotp.o)
 .bss           0x0000000000000000        0x0 /usr/local/xenon/usr/lib/libxenon.a(xenon_secotp.o)
 .text.xenon_secotp_read_line
                0x0000000000000000       0x20 /usr/local/xenon/usr/lib/libxenon.a(xenon_secotp.o)
 .debug_info    0x0000000000000000       0xb7 /usr/local/xenon/usr/lib/libxenon.a(xenon_secotp.o)
 .debug_abbrev  0x0000000000000000       0x5f /usr/local/xenon/usr/lib/libxenon.a(xenon_secotp.o)
 .debug_loc     0x0000000000000000       0x13 /usr/local/xenon/usr/lib/libxenon.a(xenon_secotp.o)
 .debug_aranges
                0x0000000000000000       0x20 /usr/local/xenon/usr/lib/libxenon.a(xenon_secotp.o)
 .debug_ranges  0x0000000000000000       0x10 /usr/local/xenon/usr/lib/libxenon.a(xenon_secotp.o)
 .debug_line    0x0000000000000000       0xa2 /usr/local/xenon/usr/lib/libxenon.a(xenon_secotp.o)
 .debug_str     0x0000000000000000      0x113 /usr/local/xenon/usr/lib/libxenon.a(xenon_secotp.o)
 .comment       0x0000000000000000       0x12 /usr/local/xenon/usr/lib/libxenon.a(xenon_secotp.o)
 .note.GNU-stack
                0x0000000000000000        0x0 /usr/local/xenon/usr/lib/libxenon.a(xenon_secotp.o)
 .debug_frame   0x0000000000000000       0x20 /usr/local/xenon/usr/lib/libxenon.a(xenon_secotp.o)
 .text          0x0000000000000000        0x0 /usr/local/xenon/usr/lib/libxenon.a(ucode.o)
 .data          0x0000000000000000        0x0 /usr/local/xenon/usr/lib/libxenon.a(ucode.o)
 .bss           0x0000000000000000        0x0 /usr/local/xenon/usr/lib/libxenon.a(ucode.o)
 .text          0x0000000000000000        0x0 /usr/local/xenon/usr/lib/libxenon.a(init.o)
 .data          0x0000000000000000        0x0 /usr/local/xenon/usr/lib/libxenon.a(init.o)
 .bss           0x0000000000000000        0x0 /usr/local/xenon/usr/lib/libxenon.a(init.o)
 .text          0x0000000000000000        0x0 /usr/local/xenon/usr/lib/libxenon.a(mem.o)
 .data          0x0000000000000000        0x0 /usr/local/xenon/usr/lib/libxenon.a(mem.o)
 .bss           0x0000000000000000        0x0 /usr/local/xenon/usr/lib/libxenon.a(mem.o)
 .text.mem_calloc
                0x0000000000000000       0x40 /usr/local/xenon/usr/lib/libxenon.a(mem.o)
 .text          0x0000000000000000        0x0 /usr/local/xenon/usr/lib/libxenon.a(dns.o)
 .data          0x0000000000000000        0x0 /usr/local/xenon/usr/lib/libxenon.a(dns.o)
 .bss           0x0000000000000000        0x0 /usr/local/xenon/usr/lib/libxenon.a(dns.o)
 .text.unlikely.dns_send
                0x0000000000000000      0x1b4 /usr/local/xenon/usr/lib/libxenon.a(dns.o)
 .text.dns_check_entry
                0x0000000000000000      0x198 /usr/local/xenon/usr/lib/libxenon.a(dns.o)
 .text.dns_getserver
                0x0000000000000000       0x30 /usr/local/xenon/usr/lib/libxenon.a(dns.o)
 .text.dns_tmr  0x0000000000000000       0x58 /usr/local/xenon/usr/lib/libxenon.a(dns.o)
 .text.dns_gethostbyname
                0x0000000000000000      0x1cc /usr/local/xenon/usr/lib/libxenon.a(dns.o)
 .bss.dns_seqno
                0x0000000000000000        0x1 /usr/local/xenon/usr/lib/libxenon.a(dns.o)
 .text          0x0000000000000000        0x0 /usr/local/xenon/usr/lib/libxenon.a(memp.o)
 .data          0x0000000000000000        0x0 /usr/local/xenon/usr/lib/libxenon.a(memp.o)
 .bss           0x0000000000000000        0x0 /usr/local/xenon/usr/lib/libxenon.a(memp.o)
 .text          0x0000000000000000        0x0 /usr/local/xenon/usr/lib/libxenon.a(netif.o)
 .data          0x0000000000000000        0x0 /usr/local/xenon/usr/lib/libxenon.a(netif.o)
 .bss           0x0000000000000000        0x0 /usr/local/xenon/usr/lib/libxenon.a(netif.o)
 .text.netif_find
                0x0000000000000000       0x64 /usr/local/xenon/usr/lib/libxenon.a(netif.o)
 .text.netif_remove
                0x0000000000000000       0x94 /usr/local/xenon/usr/lib/libxenon.a(netif.o)
 .text.netif_set_status_callback
                0x0000000000000000       0x10 /usr/local/xenon/usr/lib/libxenon.a(netif.o)
 .text.netif_set_link_up
                0x0000000000000000       0x88 /usr/local/xenon/usr/lib/libxenon.a(netif.o)
 .text.netif_set_link_down
                0x0000000000000000       0x4c /usr/local/xenon/usr/lib/libxenon.a(netif.o)
 .text.netif_set_link_callback
                0x0000000000000000       0x10 /usr/local/xenon/usr/lib/libxenon.a(netif.o)
 .text          0x0000000000000000        0x0 /usr/local/xenon/usr/lib/libxenon.a(pbuf.o)
 .data          0x0000000000000000        0x0 /usr/local/xenon/usr/lib/libxenon.a(pbuf.o)
 .bss           0x0000000000000000        0x0 /usr/local/xenon/usr/lib/libxenon.a(pbuf.o)
 .text.pbuf_dechain
                0x0000000000000000       0xc0 /usr/local/xenon/usr/lib/libxenon.a(pbuf.o)
 .text.pbuf_take
                0x0000000000000000      0x130 /usr/local/xenon/usr/lib/libxenon.a(pbuf.o)
 .text.pbuf_coalesce
                0x0000000000000000       0x84 /usr/local/xenon/usr/lib/libxenon.a(pbuf.o)
 .text.pbuf_get_at
                0x0000000000000000       0x38 /usr/local/xenon/usr/lib/libxenon.a(pbuf.o)
 .text.pbuf_memcmp
                0x0000000000000000       0xa4 /usr/local/xenon/usr/lib/libxenon.a(pbuf.o)
 .text.pbuf_memfind
                0x0000000000000000       0x88 /usr/local/xenon/usr/lib/libxenon.a(pbuf.o)
 .text.pbuf_strstr
                0x0000000000000000       0x94 /usr/local/xenon/usr/lib/libxenon.a(pbuf.o)
 .text          0x0000000000000000        0x0 /usr/local/xenon/usr/lib/libxenon.a(stats.o)
 .data          0x0000000000000000        0x0 /usr/local/xenon/usr/lib/libxenon.a(stats.o)
 .bss           0x0000000000000000        0x0 /usr/local/xenon/usr/lib/libxenon.a(stats.o)
 .text          0x0000000000000000        0x0 /usr/local/xenon/usr/lib/libxenon.a(tcp.o)
 .data          0x0000000000000000        0x0 /usr/local/xenon/usr/lib/libxenon.a(tcp.o)
 .bss           0x0000000000000000        0x0 /usr/local/xenon/usr/lib/libxenon.a(tcp.o)
 .text.tcp_accept_null
                0x0000000000000000        0x8 /usr/local/xenon/usr/lib/libxenon.a(tcp.o)
 .text.tcp_new_port
                0x0000000000000000       0x78 /usr/local/xenon/usr/lib/libxenon.a(tcp.o)
 .text.tcp_bind
                0x0000000000000000      0x100 /usr/local/xenon/usr/lib/libxenon.a(tcp.o)
 .text.tcp_listen_with_backlog
                0x0000000000000000      0x140 /usr/local/xenon/usr/lib/libxenon.a(tcp.o)
 .text.tcp_setprio
                0x0000000000000000        0x8 /usr/local/xenon/usr/lib/libxenon.a(tcp.o)
 .text.tcp_arg  0x0000000000000000        0x8 /usr/local/xenon/usr/lib/libxenon.a(tcp.o)
 .text.tcp_recv
                0x0000000000000000        0x8 /usr/local/xenon/usr/lib/libxenon.a(tcp.o)
 .text.tcp_sent
                0x0000000000000000        0x8 /usr/local/xenon/usr/lib/libxenon.a(tcp.o)
 .text.tcp_err  0x0000000000000000        0x8 /usr/local/xenon/usr/lib/libxenon.a(tcp.o)
 .text.tcp_accept
                0x0000000000000000        0x8 /usr/local/xenon/usr/lib/libxenon.a(tcp.o)
 .text.tcp_poll
                0x0000000000000000        0xc /usr/local/xenon/usr/lib/libxenon.a(tcp.o)
 .text.tcp_shutdown
                0x0000000000000000       0xb0 /usr/local/xenon/usr/lib/libxenon.a(tcp.o)
 .text.tcp_new  0x0000000000000000        0x8 /usr/local/xenon/usr/lib/libxenon.a(tcp.o)
 .text.tcp_connect
                0x0000000000000000      0x1a4 /usr/local/xenon/usr/lib/libxenon.a(tcp.o)
 .text.tcp_debug_state_str
                0x0000000000000000       0x14 /usr/local/xenon/usr/lib/libxenon.a(tcp.o)
 .rodata.tcp_state_str
                0x0000000000000000       0x2c /usr/local/xenon/usr/lib/libxenon.a(tcp.o)
 .rodata.tcp_pcb_lists
                0x0000000000000000       0x10 /usr/local/xenon/usr/lib/libxenon.a(tcp.o)
 .data.port.3476
                0x0000000000000000        0x2 /usr/local/xenon/usr/lib/libxenon.a(tcp.o)
 .text          0x0000000000000000        0x0 /usr/local/xenon/usr/lib/libxenon.a(ip_addr.o)
 .data          0x0000000000000000        0x0 /usr/local/xenon/usr/lib/libxenon.a(ip_addr.o)
 .bss           0x0000000000000000        0x0 /usr/local/xenon/usr/lib/libxenon.a(ip_addr.o)
 .text.ip4_addr_netmask_valid
                0x0000000000000000       0x50 /usr/local/xenon/usr/lib/libxenon.a(ip_addr.o)
 .text.ipaddr_ntoa_r
                0x0000000000000000       0xc0 /usr/local/xenon/usr/lib/libxenon.a(ip_addr.o)
 .text.ipaddr_ntoa
                0x0000000000000000       0x10 /usr/local/xenon/usr/lib/libxenon.a(ip_addr.o)
 .bss.str.2964  0x0000000000000000       0x10 /usr/local/xenon/usr/lib/libxenon.a(ip_addr.o)
 .text          0x0000000000000000        0x0 /usr/local/xenon/usr/lib/libxenon.a(ip.o)
 .data          0x0000000000000000        0x0 /usr/local/xenon/usr/lib/libxenon.a(ip.o)
 .bss           0x0000000000000000        0x0 /usr/local/xenon/usr/lib/libxenon.a(ip.o)
 .text          0x0000000000000000        0x0 /usr/local/xenon/usr/lib/libxenon.a(ip_frag.o)
 .data          0x0000000000000000        0x0 /usr/local/xenon/usr/lib/libxenon.a(ip_frag.o)
 .bss           0x0000000000000000        0x0 /usr/local/xenon/usr/lib/libxenon.a(ip_frag.o)
 .text.unlikely.ip_frag_free_pbuf_custom_ref.part.0
                0x0000000000000000       0x2c /usr/local/xenon/usr/lib/libxenon.a(ip_frag.o)
 .text.ip_reass_tmr
                0x0000000000000000       0x60 /usr/local/xenon/usr/lib/libxenon.a(ip_frag.o)
 .text          0x0000000000000000        0x0 /usr/local/xenon/usr/lib/libxenon.a(tcp_out.o)
 .data          0x0000000000000000        0x0 /usr/local/xenon/usr/lib/libxenon.a(tcp_out.o)
 .bss           0x0000000000000000        0x0 /usr/local/xenon/usr/lib/libxenon.a(tcp_out.o)
 .text.tcp_pbuf_prealloc
                0x0000000000000000       0xd0 /usr/local/xenon/usr/lib/libxenon.a(tcp_out.o)
 .text.tcp_write
                0x0000000000000000      0x6b8 /usr/local/xenon/usr/lib/libxenon.a(tcp_out.o)
 .text          0x0000000000000000        0x0 /usr/local/xenon/usr/lib/libxenon.a(udp.o)
 .data          0x0000000000000000        0x0 /usr/local/xenon/usr/lib/libxenon.a(udp.o)
 .bss           0x0000000000000000        0x0 /usr/local/xenon/usr/lib/libxenon.a(udp.o)
 .text.udp_sendto
                0x0000000000000000       0x78 /usr/local/xenon/usr/lib/libxenon.a(udp.o)
 .text.udp_send
                0x0000000000000000        0xc /usr/local/xenon/usr/lib/libxenon.a(udp.o)
 .text.udp_disconnect
                0x0000000000000000       0x1c /usr/local/xenon/usr/lib/libxenon.a(udp.o)
 .text          0x0000000000000000        0x0 /usr/local/xenon/usr/lib/libxenon.a(etharp.o)
 .data          0x0000000000000000        0x0 /usr/local/xenon/usr/lib/libxenon.a(etharp.o)
 .bss           0x0000000000000000        0x0 /usr/local/xenon/usr/lib/libxenon.a(etharp.o)
 .text.etharp_tmr
                0x0000000000000000       0x78 /usr/local/xenon/usr/lib/libxenon.a(etharp.o)
 .text.etharp_find_addr
                0x0000000000000000       0x98 /usr/local/xenon/usr/lib/libxenon.a(etharp.o)
 .text.ethernet_input
                0x0000000000000000       0xfc /usr/local/xenon/usr/lib/libxenon.a(etharp.o)
 .text          0x0000000000000000        0x0 /usr/local/xenon/usr/lib/libxenon.a(dhcp.o)
 .data          0x0000000000000000        0x0 /usr/local/xenon/usr/lib/libxenon.a(dhcp.o)
 .bss           0x0000000000000000        0x0 /usr/local/xenon/usr/lib/libxenon.a(dhcp.o)
 .text.dhcp_set_struct
                0x0000000000000000       0xb0 /usr/local/xenon/usr/lib/libxenon.a(dhcp.o)
 .text.dhcp_cleanup
                0x0000000000000000       0x5c /usr/local/xenon/usr/lib/libxenon.a(dhcp.o)
 .text.dhcp_inform
                0x0000000000000000      0x128 /usr/local/xenon/usr/lib/libxenon.a(dhcp.o)
 .text.dhcp_network_changed
                0x0000000000000000       0xa4 /usr/local/xenon/usr/lib/libxenon.a(dhcp.o)
 .text          0x0000000000000000        0x0 /usr/local/xenon/usr/lib/libxenon.a(raw.o)
 .data          0x0000000000000000        0x0 /usr/local/xenon/usr/lib/libxenon.a(raw.o)
 .bss           0x0000000000000000        0x0 /usr/local/xenon/usr/lib/libxenon.a(raw.o)
 .text.raw_bind
                0x0000000000000000       0x1c /usr/local/xenon/usr/lib/libxenon.a(raw.o)
 .text.raw_connect
                0x0000000000000000       0x1c /usr/local/xenon/usr/lib/libxenon.a(raw.o)
 .text.raw_recv
                0x0000000000000000        0xc /usr/local/xenon/usr/lib/libxenon.a(raw.o)
 .text.raw_sendto
                0x0000000000000000      0x108 /usr/local/xenon/usr/lib/libxenon.a(raw.o)
 .text.raw_send
                0x0000000000000000        0x8 /usr/local/xenon/usr/lib/libxenon.a(raw.o)
 .text.raw_remove
                0x0000000000000000       0x6c /usr/local/xenon/usr/lib/libxenon.a(raw.o)
 .text.raw_new  0x0000000000000000       0x5c /usr/local/xenon/usr/lib/libxenon.a(raw.o)
 .rodata.str1.1
                0x0000000000000000       0x2e /usr/local/xenon/usr/lib/libxenon.a(raw.o)
 .text          0x0000000000000000        0x0 /usr/local/xenon/usr/lib/libxenon.a(timers.o)
 .data          0x0000000000000000        0x0 /usr/local/xenon/usr/lib/libxenon.a(timers.o)
 .bss           0x0000000000000000        0x0 /usr/local/xenon/usr/lib/libxenon.a(timers.o)
 .text          0x0000000000000000        0x0 /usr/local/xenon/usr/lib/libxenon.a(hmac_sha1.o)
 .data          0x0000000000000000        0x0 /usr/local/xenon/usr/lib/libxenon.a(hmac_sha1.o)
 .bss           0x0000000000000000        0x0 /usr/local/xenon/usr/lib/libxenon.a(hmac_sha1.o)
 .text.HMAC_SHA1_Init
                0x0000000000000000       0x5c /usr/local/xenon/usr/lib/libxenon.a(hmac_sha1.o)
 .text.HMAC_SHA1_UpdateKey
                0x0000000000000000       0xa8 /usr/local/xenon/usr/lib/libxenon.a(hmac_sha1.o)
 .text.HMAC_SHA1_EndKey
                0x0000000000000000       0xac /usr/local/xenon/usr/lib/libxenon.a(hmac_sha1.o)
 .text.HMAC_SHA1_StartMessage
                0x0000000000000000       0x3c /usr/local/xenon/usr/lib/libxenon.a(hmac_sha1.o)
 .text.HMAC_SHA1_UpdateMessage
                0x0000000000000000       0x24 /usr/local/xenon/usr/lib/libxenon.a(hmac_sha1.o)
 .text.HMAC_SHA1_EndMessage
                0x0000000000000000       0x68 /usr/local/xenon/usr/lib/libxenon.a(hmac_sha1.o)
 .text.HMAC_SHA1_Done
                0x0000000000000000       0x58 /usr/local/xenon/usr/lib/libxenon.a(hmac_sha1.o)
 .text.HMAC_SHA1
                0x0000000000000000       0x84 /usr/local/xenon/usr/lib/libxenon.a(hmac_sha1.o)
 .debug_info    0x0000000000000000      0x414 /usr/local/xenon/usr/lib/libxenon.a(hmac_sha1.o)
 .debug_abbrev  0x0000000000000000      0x16b /usr/local/xenon/usr/lib/libxenon.a(hmac_sha1.o)
 .debug_loc     0x0000000000000000      0x399 /usr/local/xenon/usr/lib/libxenon.a(hmac_sha1.o)
 .debug_aranges
                0x0000000000000000       0x58 /usr/local/xenon/usr/lib/libxenon.a(hmac_sha1.o)
 .debug_ranges  0x0000000000000000       0x48 /usr/local/xenon/usr/lib/libxenon.a(hmac_sha1.o)
 .debug_line    0x0000000000000000      0x14a /usr/local/xenon/usr/lib/libxenon.a(hmac_sha1.o)
 .debug_str     0x0000000000000000      0x1fd /usr/local/xenon/usr/lib/libxenon.a(hmac_sha1.o)
 .comment       0x0000000000000000       0x12 /usr/local/xenon/usr/lib/libxenon.a(hmac_sha1.o)
 .note.GNU-stack
                0x0000000000000000        0x0 /usr/local/xenon/usr/lib/libxenon.a(hmac_sha1.o)
 .debug_frame   0x0000000000000000      0x10c /usr/local/xenon/usr/lib/libxenon.a(hmac_sha1.o)
 .text          0x0000000000000000        0x0 /usr/local/xenon/usr/lib/libxenon.a(rc4.o)
 .data          0x0000000000000000        0x0 /usr/local/xenon/usr/lib/libxenon.a(rc4.o)
 .bss           0x0000000000000000        0x0 /usr/local/xenon/usr/lib/libxenon.a(rc4.o)
 .text.rc4_init
                0x0000000000000000       0x60 /usr/local/xenon/usr/lib/libxenon.a(rc4.o)
 .text.rc4_crypt
                0x0000000000000000       0x6c /usr/local/xenon/usr/lib/libxenon.a(rc4.o)
 .debug_info    0x0000000000000000      0x11b /usr/local/xenon/usr/lib/libxenon.a(rc4.o)
 .debug_abbrev  0x0000000000000000       0xac /usr/local/xenon/usr/lib/libxenon.a(rc4.o)
 .debug_loc     0x0000000000000000       0xef /usr/local/xenon/usr/lib/libxenon.a(rc4.o)
 .debug_aranges
                0x0000000000000000       0x28 /usr/local/xenon/usr/lib/libxenon.a(rc4.o)
 .debug_ranges  0x0000000000000000       0x18 /usr/local/xenon/usr/lib/libxenon.a(rc4.o)
 .debug_line    0x0000000000000000       0xa8 /usr/local/xenon/usr/lib/libxenon.a(rc4.o)
 .debug_str     0x0000000000000000       0x7c /usr/local/xenon/usr/lib/libxenon.a(rc4.o)
 .comment       0x0000000000000000       0x12 /usr/local/xenon/usr/lib/libxenon.a(rc4.o)
 .note.GNU-stack
                0x0000000000000000        0x0 /usr/local/xenon/usr/lib/libxenon.a(rc4.o)
 .debug_frame   0x0000000000000000       0x30 /usr/local/xenon/usr/lib/libxenon.a(rc4.o)
 .text          0x0000000000000000        0x0 /usr/local/xenon/usr/lib/libxenon.a(sha1.o)
 .data          0x0000000000000000        0x0 /usr/local/xenon/usr/lib/libxenon.a(sha1.o)
 .bss           0x0000000000000000        0x0 /usr/local/xenon/usr/lib/libxenon.a(sha1.o)
 .text.SHA1_Transform
                0x0000000000000000     0x111c /usr/local/xenon/usr/lib/libxenon.a(sha1.o)
 .text.SHA1_Init
                0x0000000000000000       0x4c /usr/local/xenon/usr/lib/libxenon.a(sha1.o)
 .text.SHA1_Update
                0x0000000000000000       0xcc /usr/local/xenon/usr/lib/libxenon.a(sha1.o)
 .text.SHA1_Final
                0x0000000000000000      0x10c /usr/local/xenon/usr/lib/libxenon.a(sha1.o)
 .rodata        0x0000000000000000        0x2 /usr/local/xenon/usr/lib/libxenon.a(sha1.o)
 .rodata.str1.1
                0x0000000000000000        0x2 /usr/local/xenon/usr/lib/libxenon.a(sha1.o)
 .debug_info    0x0000000000000000      0x2c1 /usr/local/xenon/usr/lib/libxenon.a(sha1.o)
 .debug_abbrev  0x0000000000000000      0x12c /usr/local/xenon/usr/lib/libxenon.a(sha1.o)
 .debug_loc     0x0000000000000000      0x870 /usr/local/xenon/usr/lib/libxenon.a(sha1.o)
 .debug_aranges
                0x0000000000000000       0x38 /usr/local/xenon/usr/lib/libxenon.a(sha1.o)
 .debug_ranges  0x0000000000000000       0x28 /usr/local/xenon/usr/lib/libxenon.a(sha1.o)
 .debug_line    0x0000000000000000      0x247 /usr/local/xenon/usr/lib/libxenon.a(sha1.o)
 .debug_str     0x0000000000000000      0x186 /usr/local/xenon/usr/lib/libxenon.a(sha1.o)
 .comment       0x0000000000000000       0x12 /usr/local/xenon/usr/lib/libxenon.a(sha1.o)
 .note.GNU-stack
                0x0000000000000000        0x0 /usr/local/xenon/usr/lib/libxenon.a(sha1.o)
 .debug_frame   0x0000000000000000       0xa0 /usr/local/xenon/usr/lib/libxenon.a(sha1.o)
 .text          0x0000000000000000        0x0 /usr/local/xenon/usr/lib/libxenon.a(lib_queue.o)
 .data          0x0000000000000000        0x0 /usr/local/xenon/usr/lib/libxenon.a(lib_queue.o)
 .bss           0x0000000000000000        0x0 /usr/local/xenon/usr/lib/libxenon.a(lib_queue.o)
 .text.q_dequeue
                0x0000000000000000       0x18 /usr/local/xenon/usr/lib/libxenon.a(lib_queue.o)
 .text.q_map    0x0000000000000000       0x60 /usr/local/xenon/usr/lib/libxenon.a(lib_queue.o)
 .text.q_count  0x0000000000000000       0x24 /usr/local/xenon/usr/lib/libxenon.a(lib_queue.o)
 .text.q_find   0x0000000000000000       0x34 /usr/local/xenon/usr/lib/libxenon.a(lib_queue.o)
 .text          0x0000000000000000        0x0 /usr/local/xenon/usr/lib/libxenon.a(tcp_in.o)
 .data          0x0000000000000000        0x0 /usr/local/xenon/usr/lib/libxenon.a(tcp_in.o)
 .bss           0x0000000000000000        0x0 /usr/local/xenon/usr/lib/libxenon.a(tcp_in.o)
 .text          0x0000000000000000        0x0 /usr/local/xenon/usr/lib/libxenon.a(inet_chksum.o)
 .data          0x0000000000000000        0x0 /usr/local/xenon/usr/lib/libxenon.a(inet_chksum.o)
 .bss           0x0000000000000000        0x0 /usr/local/xenon/usr/lib/libxenon.a(inet_chksum.o)
 .text.inet_chksum_pseudo_partial
                0x0000000000000000      0x140 /usr/local/xenon/usr/lib/libxenon.a(inet_chksum.o)
 .rodata.str1.1
                0x0000000000000000       0x3b /usr/local/xenon/usr/lib/libxenon.a(inet_chksum.o)
 .text          0x0000000000000000        0x0 /usr/local/xenon/usr/lib/libxenon.a(icmp.o)
 .data          0x0000000000000000        0x0 /usr/local/xenon/usr/lib/libxenon.a(icmp.o)
 .bss           0x0000000000000000        0x0 /usr/local/xenon/usr/lib/libxenon.a(icmp.o)
 .data          0x0000000000000000        0x0 /usr/local/xenon/lib/gcc/xenon/4.6.1/32/libgcc.a(crtsavgpr.o)
 .bss           0x0000000000000000        0x0 /usr/local/xenon/lib/gcc/xenon/4.6.1/32/libgcc.a(crtsavgpr.o)
 .data          0x0000000000000000        0x0 /usr/local/xenon/lib/gcc/xenon/4.6.1/32/libgcc.a(crtresxgpr.o)
 .bss           0x0000000000000000        0x0 /usr/local/xenon/lib/gcc/xenon/4.6.1/32/libgcc.a(crtresxgpr.o)
 .data          0x0000000000000000        0x0 /usr/local/xenon/lib/gcc/xenon/4.6.1/32/libgcc.a(unwind-dw2-fde-glibc.o)
 .data          0x0000000000000000        0x0 /usr/local/xenon/xenon/lib/32/libc.a(lib_a-assert.o)
 .bss           0x0000000000000000        0x0 /usr/local/xenon/xenon/lib/32/libc.a(lib_a-assert.o)
 .text          0x0000000000000000        0x0 /usr/local/xenon/xenon/lib/32/libc.a(lib_a-ctype_.o)
 .data          0x0000000000000000        0x0 /usr/local/xenon/xenon/lib/32/libc.a(lib_a-ctype_.o)
 .bss           0x0000000000000000        0x0 /usr/local/xenon/xenon/lib/32/libc.a(lib_a-ctype_.o)
 .got2          0x0000000000000000        0x0 /usr/local/xenon/xenon/lib/32/libc.a(lib_a-ctype_.o)
 .rodata        0x0000000000000000      0x101 /usr/local/xenon/xenon/lib/32/libc.a(lib_a-ctype_.o)
 .sdata         0x0000000000000000        0x8 /usr/local/xenon/xenon/lib/32/libc.a(lib_a-ctype_.o)
 .debug_info    0x0000000000000000       0x9d /usr/local/xenon/xenon/lib/32/libc.a(lib_a-ctype_.o)
 .debug_abbrev  0x0000000000000000       0x63 /usr/local/xenon/xenon/lib/32/libc.a(lib_a-ctype_.o)
 .debug_line    0x0000000000000000       0xa7 /usr/local/xenon/xenon/lib/32/libc.a(lib_a-ctype_.o)
 .debug_str     0x0000000000000000       0xbb /usr/local/xenon/xenon/lib/32/libc.a(lib_a-ctype_.o)
 .comment       0x0000000000000000       0x12 /usr/local/xenon/xenon/lib/32/libc.a(lib_a-ctype_.o)
 .note.GNU-stack
                0x0000000000000000        0x0 /usr/local/xenon/xenon/lib/32/libc.a(lib_a-ctype_.o)
 .text          0x0000000000000000       0x40 /usr/local/xenon/xenon/lib/32/libc.a(lib_a-errno.o)
 .data          0x0000000000000000        0x0 /usr/local/xenon/xenon/lib/32/libc.a(lib_a-errno.o)
 .bss           0x0000000000000000        0x0 /usr/local/xenon/xenon/lib/32/libc.a(lib_a-errno.o)
 .got2          0x0000000000000000        0x4 /usr/local/xenon/xenon/lib/32/libc.a(lib_a-errno.o)
 .debug_info    0x0000000000000000      0x965 /usr/local/xenon/xenon/lib/32/libc.a(lib_a-errno.o)
 .debug_abbrev  0x0000000000000000      0x16e /usr/local/xenon/xenon/lib/32/libc.a(lib_a-errno.o)
 .debug_loc     0x0000000000000000       0x2c /usr/local/xenon/xenon/lib/32/libc.a(lib_a-errno.o)
 .debug_aranges
                0x0000000000000000       0x20 /usr/local/xenon/xenon/lib/32/libc.a(lib_a-errno.o)
 .debug_line    0x0000000000000000      0x116 /usr/local/xenon/xenon/lib/32/libc.a(lib_a-errno.o)
 .debug_str     0x0000000000000000      0x4d2 /usr/local/xenon/xenon/lib/32/libc.a(lib_a-errno.o)
 .comment       0x0000000000000000       0x12 /usr/local/xenon/xenon/lib/32/libc.a(lib_a-errno.o)
 .note.GNU-stack
                0x0000000000000000        0x0 /usr/local/xenon/xenon/lib/32/libc.a(lib_a-errno.o)
 .debug_frame   0x0000000000000000       0x34 /usr/local/xenon/xenon/lib/32/libc.a(lib_a-errno.o)
 .data          0x0000000000000000        0x0 /usr/local/xenon/xenon/lib/32/libc.a(lib_a-exit.o)
 .bss           0x0000000000000000        0x0 /usr/local/xenon/xenon/lib/32/libc.a(lib_a-exit.o)
 .data          0x0000000000000000        0x0 /usr/local/xenon/xenon/lib/32/libc.a(lib_a-fclose.o)
 .bss           0x0000000000000000        0x0 /usr/local/xenon/xenon/lib/32/libc.a(lib_a-fclose.o)
 .data          0x0000000000000000        0x0 /usr/local/xenon/xenon/lib/32/libc.a(lib_a-fflush.o)
 .bss           0x0000000000000000        0x0 /usr/local/xenon/xenon/lib/32/libc.a(lib_a-fflush.o)
 .data          0x0000000000000000        0x0 /usr/local/xenon/xenon/lib/32/libc.a(lib_a-findfp.o)
 .bss           0x0000000000000000        0x0 /usr/local/xenon/xenon/lib/32/libc.a(lib_a-findfp.o)
 .data          0x0000000000000000        0x0 /usr/local/xenon/xenon/lib/32/libc.a(lib_a-fiprintf.o)
 .bss           0x0000000000000000        0x0 /usr/local/xenon/xenon/lib/32/libc.a(lib_a-fiprintf.o)
 .text          0x0000000000000000      0x194 /usr/local/xenon/xenon/lib/32/libc.a(lib_a-fopen.o)
 .data          0x0000000000000000        0x0 /usr/local/xenon/xenon/lib/32/libc.a(lib_a-fopen.o)
 .bss           0x0000000000000000        0x0 /usr/local/xenon/xenon/lib/32/libc.a(lib_a-fopen.o)
 .got2          0x0000000000000000       0x14 /usr/local/xenon/xenon/lib/32/libc.a(lib_a-fopen.o)
 .debug_info    0x0000000000000000      0xa17 /usr/local/xenon/xenon/lib/32/libc.a(lib_a-fopen.o)
 .debug_abbrev  0x0000000000000000      0x1d4 /usr/local/xenon/xenon/lib/32/libc.a(lib_a-fopen.o)
 .debug_loc     0x0000000000000000      0x1d2 /usr/local/xenon/xenon/lib/32/libc.a(lib_a-fopen.o)
 .debug_aranges
                0x0000000000000000       0x20 /usr/local/xenon/xenon/lib/32/libc.a(lib_a-fopen.o)
 .debug_line    0x0000000000000000      0x184 /usr/local/xenon/xenon/lib/32/libc.a(lib_a-fopen.o)
 .debug_str     0x0000000000000000      0x4f5 /usr/local/xenon/xenon/lib/32/libc.a(lib_a-fopen.o)
 .comment       0x0000000000000000       0x12 /usr/local/xenon/xenon/lib/32/libc.a(lib_a-fopen.o)
 .note.GNU-stack
                0x0000000000000000        0x0 /usr/local/xenon/xenon/lib/32/libc.a(lib_a-fopen.o)
 .debug_frame   0x0000000000000000       0x74 /usr/local/xenon/xenon/lib/32/libc.a(lib_a-fopen.o)
 .text          0x0000000000000000      0x308 /usr/local/xenon/xenon/lib/32/libc.a(lib_a-fread.o)
 .data          0x0000000000000000        0x0 /usr/local/xenon/xenon/lib/32/libc.a(lib_a-fread.o)
 .bss           0x0000000000000000        0x0 /usr/local/xenon/xenon/lib/32/libc.a(lib_a-fread.o)
 .got2          0x0000000000000000        0x4 /usr/local/xenon/xenon/lib/32/libc.a(lib_a-fread.o)
 .debug_info    0x0000000000000000      0xab2 /usr/local/xenon/xenon/lib/32/libc.a(lib_a-fread.o)
 .debug_abbrev  0x0000000000000000      0x1cc /usr/local/xenon/xenon/lib/32/libc.a(lib_a-fread.o)
 .debug_loc     0x0000000000000000      0x3c1 /usr/local/xenon/xenon/lib/32/libc.a(lib_a-fread.o)
 .debug_aranges
                0x0000000000000000       0x20 /usr/local/xenon/xenon/lib/32/libc.a(lib_a-fread.o)
 .debug_ranges  0x0000000000000000       0x38 /usr/local/xenon/xenon/lib/32/libc.a(lib_a-fread.o)
 .debug_line    0x0000000000000000      0x210 /usr/local/xenon/xenon/lib/32/libc.a(lib_a-fread.o)
 .debug_str     0x0000000000000000      0x51e /usr/local/xenon/xenon/lib/32/libc.a(lib_a-fread.o)
 .comment       0x0000000000000000       0x12 /usr/local/xenon/xenon/lib/32/libc.a(lib_a-fread.o)
 .note.GNU-stack
                0x0000000000000000        0x0 /usr/local/xenon/xenon/lib/32/libc.a(lib_a-fread.o)
 .debug_frame   0x0000000000000000       0x7c /usr/local/xenon/xenon/lib/32/libc.a(lib_a-fread.o)
 .data          0x0000000000000000        0x0 /usr/local/xenon/xenon/lib/32/libc.a(lib_a-freer.o)
 .bss           0x0000000000000000        0x0 /usr/local/xenon/xenon/lib/32/libc.a(lib_a-freer.o)
 .text          0x0000000000000000      0x5e4 /usr/local/xenon/xenon/lib/32/libc.a(lib_a-fseek.o)
 .data          0x0000000000000000        0x0 /usr/local/xenon/xenon/lib/32/libc.a(lib_a-fseek.o)
 .bss           0x0000000000000000        0x0 /usr/local/xenon/xenon/lib/32/libc.a(lib_a-fseek.o)
 .got2          0x0000000000000000        0x8 /usr/local/xenon/xenon/lib/32/libc.a(lib_a-fseek.o)
 .debug_info    0x0000000000000000      0xc13 /usr/local/xenon/xenon/lib/32/libc.a(lib_a-fseek.o)
 .debug_abbrev  0x0000000000000000      0x217 /usr/local/xenon/xenon/lib/32/libc.a(lib_a-fseek.o)
 .debug_loc     0x0000000000000000      0x3e0 /usr/local/xenon/xenon/lib/32/libc.a(lib_a-fseek.o)
 .debug_aranges
                0x0000000000000000       0x20 /usr/local/xenon/xenon/lib/32/libc.a(lib_a-fseek.o)
 .debug_line    0x0000000000000000      0x2b8 /usr/local/xenon/xenon/lib/32/libc.a(lib_a-fseek.o)
 .debug_str     0x0000000000000000      0x602 /usr/local/xenon/xenon/lib/32/libc.a(lib_a-fseek.o)
 .comment       0x0000000000000000       0x12 /usr/local/xenon/xenon/lib/32/libc.a(lib_a-fseek.o)
 .note.GNU-stack
                0x0000000000000000        0x0 /usr/local/xenon/xenon/lib/32/libc.a(lib_a-fseek.o)
 .debug_frame   0x0000000000000000       0x84 /usr/local/xenon/xenon/lib/32/libc.a(lib_a-fseek.o)
 .data          0x0000000000000000        0x0 /usr/local/xenon/xenon/lib/32/libc.a(lib_a-fstatr.o)
 .bss           0x0000000000000000        0x0 /usr/local/xenon/xenon/lib/32/libc.a(lib_a-fstatr.o)
 .text          0x0000000000000000      0x190 /usr/local/xenon/xenon/lib/32/libc.a(lib_a-ftell.o)
 .data          0x0000000000000000        0x0 /usr/local/xenon/xenon/lib/32/libc.a(lib_a-ftell.o)
 .bss           0x0000000000000000        0x0 /usr/local/xenon/xenon/lib/32/libc.a(lib_a-ftell.o)
 .got2          0x0000000000000000        0x4 /usr/local/xenon/xenon/lib/32/libc.a(lib_a-ftell.o)
 .debug_info    0x0000000000000000      0x9ce /usr/local/xenon/xenon/lib/32/libc.a(lib_a-ftell.o)
 .debug_abbrev  0x0000000000000000      0x1a7 /usr/local/xenon/xenon/lib/32/libc.a(lib_a-ftell.o)
 .debug_loc     0x0000000000000000      0x12b /usr/local/xenon/xenon/lib/32/libc.a(lib_a-ftell.o)
 .debug_aranges
                0x0000000000000000       0x20 /usr/local/xenon/xenon/lib/32/libc.a(lib_a-ftell.o)
 .debug_line    0x0000000000000000      0x1a4 /usr/local/xenon/xenon/lib/32/libc.a(lib_a-ftell.o)
 .debug_str     0x0000000000000000      0x4de /usr/local/xenon/xenon/lib/32/libc.a(lib_a-ftell.o)
 .comment       0x0000000000000000       0x12 /usr/local/xenon/xenon/lib/32/libc.a(lib_a-ftell.o)
 .note.GNU-stack
                0x0000000000000000        0x0 /usr/local/xenon/xenon/lib/32/libc.a(lib_a-ftell.o)
 .debug_frame   0x0000000000000000       0x68 /usr/local/xenon/xenon/lib/32/libc.a(lib_a-ftell.o)
 .data          0x0000000000000000        0x0 /usr/local/xenon/xenon/lib/32/libc.a(lib_a-fwalk.o)
 .bss           0x0000000000000000        0x0 /usr/local/xenon/xenon/lib/32/libc.a(lib_a-fwalk.o)
 .got2          0x0000000000000000        0x0 /usr/local/xenon/xenon/lib/32/libc.a(lib_a-fwalk.o)
 .text          0x0000000000000000        0x0 /usr/local/xenon/xenon/lib/32/libc.a(lib_a-impure.o)
 .data          0x0000000000000000        0x0 /usr/local/xenon/xenon/lib/32/libc.a(lib_a-impure.o)
 .bss           0x0000000000000000        0x0 /usr/local/xenon/xenon/lib/32/libc.a(lib_a-impure.o)
 .got2          0x0000000000000000        0x0 /usr/local/xenon/xenon/lib/32/libc.a(lib_a-impure.o)
 .data          0x0000000000000000        0x0 /usr/local/xenon/xenon/lib/32/libc.a(lib_a-makebuf.o)
 .bss           0x0000000000000000        0x0 /usr/local/xenon/xenon/lib/32/libc.a(lib_a-makebuf.o)
 .data          0x0000000000000000        0x0 /usr/local/xenon/xenon/lib/32/libc.a(lib_a-malign.o)
 .bss           0x0000000000000000        0x0 /usr/local/xenon/xenon/lib/32/libc.a(lib_a-malign.o)
 .data          0x0000000000000000        0x0 /usr/local/xenon/xenon/lib/32/libc.a(lib_a-malignr.o)
 .bss           0x0000000000000000        0x0 /usr/local/xenon/xenon/lib/32/libc.a(lib_a-malignr.o)
 .got2          0x0000000000000000        0x0 /usr/local/xenon/xenon/lib/32/libc.a(lib_a-malignr.o)
 .data          0x0000000000000000        0x0 /usr/local/xenon/xenon/lib/32/libc.a(lib_a-malloc.o)
 .bss           0x0000000000000000        0x0 /usr/local/xenon/xenon/lib/32/libc.a(lib_a-malloc.o)
 .data          0x0000000000000000        0x0 /usr/local/xenon/xenon/lib/32/libc.a(lib_a-mallocr.o)
 .data          0x0000000000000000        0x0 /usr/local/xenon/xenon/lib/32/libc.a(lib_a-memcmp.o)
 .bss           0x0000000000000000        0x0 /usr/local/xenon/xenon/lib/32/libc.a(lib_a-memcmp.o)
 .got2          0x0000000000000000        0x0 /usr/local/xenon/xenon/lib/32/libc.a(lib_a-memcmp.o)
 .data          0x0000000000000000        0x0 /usr/local/xenon/xenon/lib/32/libc.a(lib_a-memcpy.o)
 .bss           0x0000000000000000        0x0 /usr/local/xenon/xenon/lib/32/libc.a(lib_a-memcpy.o)
 .got2          0x0000000000000000        0x0 /usr/local/xenon/xenon/lib/32/libc.a(lib_a-memcpy.o)
 .data          0x0000000000000000        0x0 /usr/local/xenon/xenon/lib/32/libc.a(lib_a-memset.o)
 .bss           0x0000000000000000        0x0 /usr/local/xenon/xenon/lib/32/libc.a(lib_a-memset.o)
 .got2          0x0000000000000000        0x0 /usr/local/xenon/xenon/lib/32/libc.a(lib_a-memset.o)
 .text          0x0000000000000000       0xa4 /usr/local/xenon/xenon/lib/32/libc.a(lib_a-openr.o)
 .data          0x0000000000000000        0x0 /usr/local/xenon/xenon/lib/32/libc.a(lib_a-openr.o)
 .bss           0x0000000000000000        0x0 /usr/local/xenon/xenon/lib/32/libc.a(lib_a-openr.o)
 .got2          0x0000000000000000        0x4 /usr/local/xenon/xenon/lib/32/libc.a(lib_a-openr.o)
 .debug_info    0x0000000000000000      0x9ab /usr/local/xenon/xenon/lib/32/libc.a(lib_a-openr.o)
 .debug_abbrev  0x0000000000000000      0x19d /usr/local/xenon/xenon/lib/32/libc.a(lib_a-openr.o)
 .debug_loc     0x0000000000000000       0xbc /usr/local/xenon/xenon/lib/32/libc.a(lib_a-openr.o)
 .debug_aranges
                0x0000000000000000       0x20 /usr/local/xenon/xenon/lib/32/libc.a(lib_a-openr.o)
 .debug_line    0x0000000000000000      0x163 /usr/local/xenon/xenon/lib/32/libc.a(lib_a-openr.o)
 .debug_str     0x0000000000000000      0x4dc /usr/local/xenon/xenon/lib/32/libc.a(lib_a-openr.o)
 .comment       0x0000000000000000       0x12 /usr/local/xenon/xenon/lib/32/libc.a(lib_a-openr.o)
 .note.GNU-stack
                0x0000000000000000        0x0 /usr/local/xenon/xenon/lib/32/libc.a(lib_a-openr.o)
 .debug_frame   0x0000000000000000       0x44 /usr/local/xenon/xenon/lib/32/libc.a(lib_a-openr.o)
 .data          0x0000000000000000        0x0 /usr/local/xenon/xenon/lib/32/libc.a(lib_a-printf.o)
 .bss           0x0000000000000000        0x0 /usr/local/xenon/xenon/lib/32/libc.a(lib_a-printf.o)
 .data          0x0000000000000000        0x0 /usr/local/xenon/xenon/lib/32/libc.a(lib_a-putchar.o)
 .bss           0x0000000000000000        0x0 /usr/local/xenon/xenon/lib/32/libc.a(lib_a-putchar.o)
 .data          0x0000000000000000        0x0 /usr/local/xenon/xenon/lib/32/libc.a(lib_a-putc.o)
 .bss           0x0000000000000000        0x0 /usr/local/xenon/xenon/lib/32/libc.a(lib_a-putc.o)
 .data          0x0000000000000000        0x0 /usr/local/xenon/xenon/lib/32/libc.a(lib_a-puts.o)
 .bss           0x0000000000000000        0x0 /usr/local/xenon/xenon/lib/32/libc.a(lib_a-puts.o)
 .text          0x0000000000000000      0x294 /usr/local/xenon/xenon/lib/32/libc.a(lib_a-reent.o)
 .data          0x0000000000000000        0x0 /usr/local/xenon/xenon/lib/32/libc.a(lib_a-reent.o)
 .bss           0x0000000000000000        0x0 /usr/local/xenon/xenon/lib/32/libc.a(lib_a-reent.o)
 .got2          0x0000000000000000        0x4 /usr/local/xenon/xenon/lib/32/libc.a(lib_a-reent.o)
 .text          0x0000000000000000      0x2bc /usr/local/xenon/xenon/lib/32/libc.a(lib_a-refill.o)
 .data          0x0000000000000000        0x0 /usr/local/xenon/xenon/lib/32/libc.a(lib_a-refill.o)
 .bss           0x0000000000000000        0x0 /usr/local/xenon/xenon/lib/32/libc.a(lib_a-refill.o)
 .got2          0x0000000000000000        0x8 /usr/local/xenon/xenon/lib/32/libc.a(lib_a-refill.o)
 .debug_info    0x0000000000000000      0x9c2 /usr/local/xenon/xenon/lib/32/libc.a(lib_a-refill.o)
 .debug_abbrev  0x0000000000000000      0x196 /usr/local/xenon/xenon/lib/32/libc.a(lib_a-refill.o)
 .debug_loc     0x0000000000000000      0x148 /usr/local/xenon/xenon/lib/32/libc.a(lib_a-refill.o)
 .debug_aranges
                0x0000000000000000       0x20 /usr/local/xenon/xenon/lib/32/libc.a(lib_a-refill.o)
 .debug_line    0x0000000000000000      0x1e4 /usr/local/xenon/xenon/lib/32/libc.a(lib_a-refill.o)
 .debug_str     0x0000000000000000      0x4ea /usr/local/xenon/xenon/lib/32/libc.a(lib_a-refill.o)
 .comment       0x0000000000000000       0x12 /usr/local/xenon/xenon/lib/32/libc.a(lib_a-refill.o)
 .note.GNU-stack
                0x0000000000000000        0x0 /usr/local/xenon/xenon/lib/32/libc.a(lib_a-refill.o)
 .debug_frame   0x0000000000000000       0x74 /usr/local/xenon/xenon/lib/32/libc.a(lib_a-refill.o)
 .data          0x0000000000000000        0x0 /usr/local/xenon/xenon/lib/32/libc.a(lib_a-sbrkr.o)
 .bss           0x0000000000000000        0x0 /usr/local/xenon/xenon/lib/32/libc.a(lib_a-sbrkr.o)
 .data          0x0000000000000000        0x0 /usr/local/xenon/xenon/lib/32/libc.a(lib_a-sprintf.o)
 .bss           0x0000000000000000        0x0 /usr/local/xenon/xenon/lib/32/libc.a(lib_a-sprintf.o)
 .data          0x0000000000000000        0x0 /usr/local/xenon/xenon/lib/32/libc.a(lib_a-stdio.o)
 .bss           0x0000000000000000        0x0 /usr/local/xenon/xenon/lib/32/libc.a(lib_a-stdio.o)
 .got2          0x0000000000000000        0x0 /usr/local/xenon/xenon/lib/32/libc.a(lib_a-stdio.o)
 .data          0x0000000000000000        0x0 /usr/local/xenon/xenon/lib/32/libc.a(lib_a-strcat.o)
 .bss           0x0000000000000000        0x0 /usr/local/xenon/xenon/lib/32/libc.a(lib_a-strcat.o)
 .got2          0x0000000000000000        0x0 /usr/local/xenon/xenon/lib/32/libc.a(lib_a-strcat.o)
 .text          0x0000000000000000      0x238 /usr/local/xenon/xenon/lib/32/libc.a(lib_a-strchr.o)
 .data          0x0000000000000000        0x0 /usr/local/xenon/xenon/lib/32/libc.a(lib_a-strchr.o)
 .bss           0x0000000000000000        0x0 /usr/local/xenon/xenon/lib/32/libc.a(lib_a-strchr.o)
 .got2          0x0000000000000000        0x0 /usr/local/xenon/xenon/lib/32/libc.a(lib_a-strchr.o)
 .debug_info    0x0000000000000000      0x111 /usr/local/xenon/xenon/lib/32/libc.a(lib_a-strchr.o)
 .debug_abbrev  0x0000000000000000       0x8f /usr/local/xenon/xenon/lib/32/libc.a(lib_a-strchr.o)
 .debug_loc     0x0000000000000000      0x1a4 /usr/local/xenon/xenon/lib/32/libc.a(lib_a-strchr.o)
 .debug_aranges
                0x0000000000000000       0x20 /usr/local/xenon/xenon/lib/32/libc.a(lib_a-strchr.o)
 .debug_line    0x0000000000000000      0x12d /usr/local/xenon/xenon/lib/32/libc.a(lib_a-strchr.o)
 .debug_str     0x0000000000000000      0x12b /usr/local/xenon/xenon/lib/32/libc.a(lib_a-strchr.o)
 .comment       0x0000000000000000       0x12 /usr/local/xenon/xenon/lib/32/libc.a(lib_a-strchr.o)
 .note.GNU-stack
                0x0000000000000000        0x0 /usr/local/xenon/xenon/lib/32/libc.a(lib_a-strchr.o)
 .debug_frame   0x0000000000000000       0x38 /usr/local/xenon/xenon/lib/32/libc.a(lib_a-strchr.o)
 .data          0x0000000000000000        0x0 /usr/local/xenon/xenon/lib/32/libc.a(lib_a-strcmp.o)
 .bss           0x0000000000000000        0x0 /usr/local/xenon/xenon/lib/32/libc.a(lib_a-strcmp.o)
 .got2          0x0000000000000000        0x0 /usr/local/xenon/xenon/lib/32/libc.a(lib_a-strcmp.o)
 .data          0x0000000000000000        0x0 /usr/local/xenon/xenon/lib/32/libc.a(lib_a-strcpy.o)
 .bss           0x0000000000000000        0x0 /usr/local/xenon/xenon/lib/32/libc.a(lib_a-strcpy.o)
 .got2          0x0000000000000000        0x0 /usr/local/xenon/xenon/lib/32/libc.a(lib_a-strcpy.o)
 .data          0x0000000000000000        0x0 /usr/local/xenon/xenon/lib/32/libc.a(lib_a-strlen.o)
 .bss           0x0000000000000000        0x0 /usr/local/xenon/xenon/lib/32/libc.a(lib_a-strlen.o)
 .got2          0x0000000000000000        0x0 /usr/local/xenon/xenon/lib/32/libc.a(lib_a-strlen.o)
 .text          0x0000000000000000      0x18c /usr/local/xenon/xenon/lib/32/libc.a(lib_a-strncmp.o)
 .data          0x0000000000000000        0x0 /usr/local/xenon/xenon/lib/32/libc.a(lib_a-strncmp.o)
 .bss           0x0000000000000000        0x0 /usr/local/xenon/xenon/lib/32/libc.a(lib_a-strncmp.o)
 .got2          0x0000000000000000        0x0 /usr/local/xenon/xenon/lib/32/libc.a(lib_a-strncmp.o)
 .debug_info    0x0000000000000000       0xf2 /usr/local/xenon/xenon/lib/32/libc.a(lib_a-strncmp.o)
 .debug_abbrev  0x0000000000000000       0x7e /usr/local/xenon/xenon/lib/32/libc.a(lib_a-strncmp.o)
 .debug_loc     0x0000000000000000      0x1ae /usr/local/xenon/xenon/lib/32/libc.a(lib_a-strncmp.o)
 .debug_aranges
                0x0000000000000000       0x20 /usr/local/xenon/xenon/lib/32/libc.a(lib_a-strncmp.o)
 .debug_line    0x0000000000000000      0x1a7 /usr/local/xenon/xenon/lib/32/libc.a(lib_a-strncmp.o)
 .debug_str     0x0000000000000000      0x122 /usr/local/xenon/xenon/lib/32/libc.a(lib_a-strncmp.o)
 .comment       0x0000000000000000       0x12 /usr/local/xenon/xenon/lib/32/libc.a(lib_a-strncmp.o)
 .note.GNU-stack
                0x0000000000000000        0x0 /usr/local/xenon/xenon/lib/32/libc.a(lib_a-strncmp.o)
 .debug_frame   0x0000000000000000       0x38 /usr/local/xenon/xenon/lib/32/libc.a(lib_a-strncmp.o)
 .data          0x0000000000000000        0x0 /usr/local/xenon/xenon/lib/32/libc.a(lib_a-strncpy.o)
 .bss           0x0000000000000000        0x0 /usr/local/xenon/xenon/lib/32/libc.a(lib_a-strncpy.o)
 .got2          0x0000000000000000        0x0 /usr/local/xenon/xenon/lib/32/libc.a(lib_a-strncpy.o)
 .text          0x0000000000000000       0x70 /usr/local/xenon/xenon/lib/32/libc.a(lib_a-strnlen.o)
 .data          0x0000000000000000        0x0 /usr/local/xenon/xenon/lib/32/libc.a(lib_a-strnlen.o)
 .bss           0x0000000000000000        0x0 /usr/local/xenon/xenon/lib/32/libc.a(lib_a-strnlen.o)
 .got2          0x0000000000000000        0x0 /usr/local/xenon/xenon/lib/32/libc.a(lib_a-strnlen.o)
 .debug_info    0x0000000000000000       0xce /usr/local/xenon/xenon/lib/32/libc.a(lib_a-strnlen.o)
 .debug_abbrev  0x0000000000000000       0x7c /usr/local/xenon/xenon/lib/32/libc.a(lib_a-strnlen.o)
 .debug_loc     0x0000000000000000       0x93 /usr/local/xenon/xenon/lib/32/libc.a(lib_a-strnlen.o)
 .debug_aranges
                0x0000000000000000       0x20 /usr/local/xenon/xenon/lib/32/libc.a(lib_a-strnlen.o)
 .debug_line    0x0000000000000000      0x102 /usr/local/xenon/xenon/lib/32/libc.a(lib_a-strnlen.o)
 .debug_str     0x0000000000000000      0x128 /usr/local/xenon/xenon/lib/32/libc.a(lib_a-strnlen.o)
 .comment       0x0000000000000000       0x12 /usr/local/xenon/xenon/lib/32/libc.a(lib_a-strnlen.o)
 .note.GNU-stack
                0x0000000000000000        0x0 /usr/local/xenon/xenon/lib/32/libc.a(lib_a-strnlen.o)
 .debug_frame   0x0000000000000000       0x30 /usr/local/xenon/xenon/lib/32/libc.a(lib_a-strnlen.o)
 .text          0x0000000000000000       0x94 /usr/local/xenon/xenon/lib/32/libc.a(lib_a-strrchr.o)
 .data          0x0000000000000000        0x0 /usr/local/xenon/xenon/lib/32/libc.a(lib_a-strrchr.o)
 .bss           0x0000000000000000        0x0 /usr/local/xenon/xenon/lib/32/libc.a(lib_a-strrchr.o)
 .got2          0x0000000000000000        0x0 /usr/local/xenon/xenon/lib/32/libc.a(lib_a-strrchr.o)
 .debug_info    0x0000000000000000       0xc7 /usr/local/xenon/xenon/lib/32/libc.a(lib_a-strrchr.o)
 .debug_abbrev  0x0000000000000000       0x6f /usr/local/xenon/xenon/lib/32/libc.a(lib_a-strrchr.o)
 .debug_loc     0x0000000000000000       0xf8 /usr/local/xenon/xenon/lib/32/libc.a(lib_a-strrchr.o)
 .debug_aranges
                0x0000000000000000       0x20 /usr/local/xenon/xenon/lib/32/libc.a(lib_a-strrchr.o)
 .debug_line    0x0000000000000000       0xd7 /usr/local/xenon/xenon/lib/32/libc.a(lib_a-strrchr.o)
 .debug_str     0x0000000000000000      0x120 /usr/local/xenon/xenon/lib/32/libc.a(lib_a-strrchr.o)
 .comment       0x0000000000000000       0x12 /usr/local/xenon/xenon/lib/32/libc.a(lib_a-strrchr.o)
 .note.GNU-stack
                0x0000000000000000        0x0 /usr/local/xenon/xenon/lib/32/libc.a(lib_a-strrchr.o)
 .debug_frame   0x0000000000000000       0x44 /usr/local/xenon/xenon/lib/32/libc.a(lib_a-strrchr.o)
 .data          0x0000000000000000        0x0 /usr/local/xenon/xenon/lib/32/libc.a(lib_a-svfprintf.o)
 .bss           0x0000000000000000        0x0 /usr/local/xenon/xenon/lib/32/libc.a(lib_a-svfprintf.o)
 .data          0x0000000000000000        0x0 /usr/local/xenon/xenon/lib/32/libc.a(lib_a-vfiprintf.o)
 .bss           0x0000000000000000        0x0 /usr/local/xenon/xenon/lib/32/libc.a(lib_a-vfiprintf.o)
 .data          0x0000000000000000        0x0 /usr/local/xenon/xenon/lib/32/libc.a(lib_a-vfprintf.o)
 .bss           0x0000000000000000        0x0 /usr/local/xenon/xenon/lib/32/libc.a(lib_a-vfprintf.o)
 .data          0x0000000000000000        0x0 /usr/local/xenon/xenon/lib/32/libc.a(lib_a-vprintf.o)
 .bss           0x0000000000000000        0x0 /usr/local/xenon/xenon/lib/32/libc.a(lib_a-vprintf.o)
 .data          0x0000000000000000        0x0 /usr/local/xenon/xenon/lib/32/libc.a(lib_a-wbuf.o)
 .bss           0x0000000000000000        0x0 /usr/local/xenon/xenon/lib/32/libc.a(lib_a-wbuf.o)
 .data          0x0000000000000000        0x0 /usr/local/xenon/xenon/lib/32/libc.a(lib_a-writer.o)
 .bss           0x0000000000000000        0x0 /usr/local/xenon/xenon/lib/32/libc.a(lib_a-writer.o)
 .data          0x0000000000000000        0x0 /usr/local/xenon/xenon/lib/32/libc.a(lib_a-wsetup.o)
 .bss           0x0000000000000000        0x0 /usr/local/xenon/xenon/lib/32/libc.a(lib_a-wsetup.o)
 .data          0x0000000000000000        0x0 /usr/local/xenon/xenon/lib/32/libc.a(lib_a-__call_atexit.o)
 .bss           0x0000000000000000        0x0 /usr/local/xenon/xenon/lib/32/libc.a(lib_a-__call_atexit.o)
 .data          0x0000000000000000        0x0 /usr/local/xenon/xenon/lib/32/libc.a(lib_a-closer.o)
 .bss           0x0000000000000000        0x0 /usr/local/xenon/xenon/lib/32/libc.a(lib_a-closer.o)
 .data          0x0000000000000000        0x0 /usr/local/xenon/xenon/lib/32/libc.a(lib_a-dtoa.o)
 .bss           0x0000000000000000        0x0 /usr/local/xenon/xenon/lib/32/libc.a(lib_a-dtoa.o)
 .text          0x0000000000000000       0xa0 /usr/local/xenon/xenon/lib/32/libc.a(lib_a-flags.o)
 .data          0x0000000000000000        0x0 /usr/local/xenon/xenon/lib/32/libc.a(lib_a-flags.o)
 .bss           0x0000000000000000        0x0 /usr/local/xenon/xenon/lib/32/libc.a(lib_a-flags.o)
 .got2          0x0000000000000000        0x0 /usr/local/xenon/xenon/lib/32/libc.a(lib_a-flags.o)
 .debug_info    0x0000000000000000      0x99f /usr/local/xenon/xenon/lib/32/libc.a(lib_a-flags.o)
 .debug_abbrev  0x0000000000000000      0x18c /usr/local/xenon/xenon/lib/32/libc.a(lib_a-flags.o)
 .debug_loc     0x0000000000000000       0xcc /usr/local/xenon/xenon/lib/32/libc.a(lib_a-flags.o)
 .debug_aranges
                0x0000000000000000       0x20 /usr/local/xenon/xenon/lib/32/libc.a(lib_a-flags.o)
 .debug_line    0x0000000000000000      0x136 /usr/local/xenon/xenon/lib/32/libc.a(lib_a-flags.o)
 .debug_str     0x0000000000000000      0x4d1 /usr/local/xenon/xenon/lib/32/libc.a(lib_a-flags.o)
 .comment       0x0000000000000000       0x12 /usr/local/xenon/xenon/lib/32/libc.a(lib_a-flags.o)
 .note.GNU-stack
                0x0000000000000000        0x0 /usr/local/xenon/xenon/lib/32/libc.a(lib_a-flags.o)
 .debug_frame   0x0000000000000000       0x20 /usr/local/xenon/xenon/lib/32/libc.a(lib_a-flags.o)
 .data          0x0000000000000000        0x0 /usr/local/xenon/xenon/lib/32/libc.a(lib_a-fvwrite.o)
 .bss           0x0000000000000000        0x0 /usr/local/xenon/xenon/lib/32/libc.a(lib_a-fvwrite.o)
 .got2          0x0000000000000000        0x0 /usr/local/xenon/xenon/lib/32/libc.a(lib_a-fvwrite.o)
 .data          0x0000000000000000        0x0 /usr/local/xenon/xenon/lib/32/libc.a(lib_a-isattyr.o)
 .bss           0x0000000000000000        0x0 /usr/local/xenon/xenon/lib/32/libc.a(lib_a-isattyr.o)
 .data          0x0000000000000000        0xc /usr/local/xenon/xenon/lib/32/libc.a(lib_a-locale.o)
 .bss           0x0000000000000000        0x0 /usr/local/xenon/xenon/lib/32/libc.a(lib_a-locale.o)
 .sbss          0x0000000000000000        0xc /usr/local/xenon/xenon/lib/32/libc.a(lib_a-locale.o)
 .sdata         0x0000000000000000        0x4 /usr/local/xenon/xenon/lib/32/libc.a(lib_a-locale.o)
 .data          0x0000000000000000        0x0 /usr/local/xenon/xenon/lib/32/libc.a(lib_a-lseekr.o)
 .bss           0x0000000000000000        0x0 /usr/local/xenon/xenon/lib/32/libc.a(lib_a-lseekr.o)
 .data          0x0000000000000000        0x0 /usr/local/xenon/xenon/lib/32/libc.a(lib_a-memchr.o)
 .bss           0x0000000000000000        0x0 /usr/local/xenon/xenon/lib/32/libc.a(lib_a-memchr.o)
 .got2          0x0000000000000000        0x0 /usr/local/xenon/xenon/lib/32/libc.a(lib_a-memchr.o)
 .data          0x0000000000000000        0x0 /usr/local/xenon/xenon/lib/32/libc.a(lib_a-memmove.o)
 .bss           0x0000000000000000        0x0 /usr/local/xenon/xenon/lib/32/libc.a(lib_a-memmove.o)
 .got2          0x0000000000000000        0x0 /usr/local/xenon/xenon/lib/32/libc.a(lib_a-memmove.o)
 .data          0x0000000000000000        0x0 /usr/local/xenon/xenon/lib/32/libc.a(lib_a-mprec.o)
 .bss           0x0000000000000000        0x0 /usr/local/xenon/xenon/lib/32/libc.a(lib_a-mprec.o)
 .data          0x0000000000000000        0x0 /usr/local/xenon/xenon/lib/32/libc.a(lib_a-readr.o)
 .bss           0x0000000000000000        0x0 /usr/local/xenon/xenon/lib/32/libc.a(lib_a-readr.o)
 .data          0x0000000000000000        0x0 /usr/local/xenon/xenon/lib/32/libc.a(lib_a-reallocr.o)
 .bss           0x0000000000000000        0x0 /usr/local/xenon/xenon/lib/32/libc.a(lib_a-reallocr.o)
 .data          0x0000000000000000        0x0 /usr/local/xenon/xenon/lib/32/libc.a(lib_a-s_isinfd.o)
 .bss           0x0000000000000000        0x0 /usr/local/xenon/xenon/lib/32/libc.a(lib_a-s_isinfd.o)
 .got2          0x0000000000000000        0x0 /usr/local/xenon/xenon/lib/32/libc.a(lib_a-s_isinfd.o)
 .data          0x0000000000000000        0x0 /usr/local/xenon/xenon/lib/32/libc.a(lib_a-s_isnand.o)
 .bss           0x0000000000000000        0x0 /usr/local/xenon/xenon/lib/32/libc.a(lib_a-s_isnand.o)
 .got2          0x0000000000000000        0x0 /usr/local/xenon/xenon/lib/32/libc.a(lib_a-s_isnand.o)
 .data          0x0000000000000000        0x0 /usr/local/xenon/xenon/lib/32/libc.a(lib_a-callocr.o)
 .bss           0x0000000000000000        0x0 /usr/local/xenon/xenon/lib/32/libc.a(lib_a-callocr.o)
 .got2          0x0000000000000000        0x0 /usr/local/xenon/xenon/lib/32/libc.a(lib_a-callocr.o)
 .data          0x0000000000000000        0x0 /usr/local/xenon/lib/gcc/xenon/4.6.1/32/libgcc.a(_udivdi3.o)
 .bss           0x0000000000000000        0x0 /usr/local/xenon/lib/gcc/xenon/4.6.1/32/libgcc.a(_udivdi3.o)
 .got2          0x0000000000000000        0x0 /usr/local/xenon/lib/gcc/xenon/4.6.1/32/libgcc.a(_udivdi3.o)
 .data          0x0000000000000000        0x0 /usr/local/xenon/lib/gcc/xenon/4.6.1/32/libgcc.a(_umoddi3.o)
 .bss           0x0000000000000000        0x0 /usr/local/xenon/lib/gcc/xenon/4.6.1/32/libgcc.a(_umoddi3.o)
 .got2          0x0000000000000000        0x0 /usr/local/xenon/lib/gcc/xenon/4.6.1/32/libgcc.a(_umoddi3.o)
 .text          0x0000000000000000       0x8c /usr/local/xenon/lib/gcc/xenon/4.6.1/32/crtend.o
 .data          0x0000000000000000        0x0 /usr/local/xenon/lib/gcc/xenon/4.6.1/32/crtend.o
 .bss           0x0000000000000000        0x0 /usr/local/xenon/lib/gcc/xenon/4.6.1/32/crtend.o
 .got2          0x0000000000000000        0x4 /usr/local/xenon/lib/gcc/xenon/4.6.1/32/crtend.o
 .ctors         0x0000000000000000        0x4 /usr/local/xenon/lib/gcc/xenon/4.6.1/32/crtend.o
 .dtors         0x0000000000000000        0x4 /usr/local/xenon/lib/gcc/xenon/4.6.1/32/crtend.o
 .jcr           0x0000000000000000        0x4 /usr/local/xenon/lib/gcc/xenon/4.6.1/32/crtend.o
 .init          0x0000000000000000        0x4 /usr/local/xenon/lib/gcc/xenon/4.6.1/32/crtend.o
 .text          0x0000000000000000        0x0 /usr/local/xenon/lib/gcc/xenon/4.6.1/../../../../xenon/lib/../lib/crtn.o
 .data          0x0000000000000000        0x0 /usr/local/xenon/lib/gcc/xenon/4.6.1/../../../../xenon/lib/../lib/crtn.o
 .bss           0x0000000000000000        0x0 /usr/local/xenon/lib/gcc/xenon/4.6.1/../../../../xenon/lib/../lib/crtn.o
 .init          0x0000000000000000       0x10 /usr/local/xenon/lib/gcc/xenon/4.6.1/../../../../xenon/lib/../lib/crtn.o
 .fini          0x0000000000000000       0x10 /usr/local/xenon/lib/gcc/xenon/4.6.1/../../../../xenon/lib/../lib/crtn.o

Memory Configuration

Name             Origin             Length             Attributes
*default*        0x0000000000000000 0xffffffffffffffff

Linker script and memory map

LOAD /usr/local/xenon/lib/gcc/xenon/4.6.1/../../../../xenon/lib/../lib/crt1.o
LOAD /usr/local/xenon/lib/gcc/xenon/4.6.1/../../../../xenon/lib/../lib/crti.o
LOAD /usr/local/xenon/lib/gcc/xenon/4.6.1/32/crtbegin.o
LOAD dashboard.o
LOAD main.o
LOAD VL.o
LOAD /usr/local/xenon/usr/lib/libxenon.a
LOAD /usr/local/xenon/xenon/lib/32/libm.a
LOAD /usr/local/xenon/lib/gcc/xenon/4.6.1/32/libgcc.a
LOAD /usr/local/xenon/xenon/lib/32/libc.a
LOAD /usr/local/xenon/lib/gcc/xenon/4.6.1/32/libgcc.a
LOAD /usr/local/xenon/lib/gcc/xenon/4.6.1/32/crtend.o
LOAD /usr/local/xenon/lib/gcc/xenon/4.6.1/../../../../xenon/lib/../lib/crtn.o
                0x0000000080000000                . = 0x80000000

.text           0x0000000080000000    0x2cee8
 *(.except*)
 .except        0x0000000080000000     0x1e1c /usr/local/xenon/usr/lib/libxenon.a(except.o)
                0x0000000080000000                secondary_lock
                0x0000000080000000                exc_base
                0x0000000080000004                secondary_alive
 *(.pagetable)
 .pagetable     0x0000000080001e1c       0x40 /usr/local/xenon/usr/lib/libxenon.a(vm.o)
                0x0000000080001e1c                pagetable
                0x0000000080001e5c                pagetable_end = .
 *(.text*)
 .text.call_ctors
                0x0000000080001e5c       0x48 /usr/local/xenon/lib/gcc/xenon/4.6.1/../../../../xenon/lib/../lib/crt1.o
                0x0000000080001e5c                call_ctors
 .text.c_register_frame
                0x0000000080001ea4       0x28 /usr/local/xenon/lib/gcc/xenon/4.6.1/../../../../xenon/lib/../lib/crt1.o
                0x0000000080001ea4                c_register_frame
 .text.__crtmain
                0x0000000080001ecc       0x2c /usr/local/xenon/lib/gcc/xenon/4.6.1/../../../../xenon/lib/../lib/crt1.o
                0x0000000080001ecc                __crtmain
 .text.setupPNG
                0x0000000080001ef8       0xb8 dashboard.o
                0x0000000080001ef8                setupPNG
 .text.displayPNG
                0x0000000080001fb0       0x20 dashboard.o
                0x0000000080001fb0                displayPNG
 .text.dashboard
                0x0000000080001fd0       0x40 dashboard.o
                0x0000000080001fd0                dashboard
 .text.startup.main
                0x0000000080002010       0x38 main.o
                0x0000000080002010                main
 .text.verificationLoader
                0x0000000080002048       0x68 VL.o
                0x0000000080002048                verificationLoader
 .text.__check_argv
                0x00000000800020b0       0x28 /usr/local/xenon/usr/lib/libxenon.a(argv.o)
                0x00000000800020b0                __check_argv
 *fill*         0x00000000800020d8       0x28 00
 .text          0x0000000080002100      0x2f4 /usr/local/xenon/usr/lib/libxenon.a(startup_from_xell.o)
                0x0000000080002100                _start
                0x00000000800022f8                wait
                0x0000000080002380                return_to_xell
 .text.console_pset32
                0x00000000800023f4       0x54 /usr/local/xenon/usr/lib/libxenon.a(console.o)
 .text.console_clrscr
                0x0000000080002448       0x80 /usr/local/xenon/usr/lib/libxenon.a(console.o)
                0x0000000080002448                console_clrscr
 .text.console_newline
                0x00000000800024c8       0xe8 /usr/local/xenon/usr/lib/libxenon.a(console.o)
                0x00000000800024c8                console_newline
 .text.console_putch
                0x00000000800025b0      0x120 /usr/local/xenon/usr/lib/libxenon.a(console.o)
                0x00000000800025b0                console_putch
 .text.console_stdout_hook
                0x00000000800026d0       0x40 /usr/local/xenon/usr/lib/libxenon.a(console.o)
 .text.console_init
                0x0000000080002710      0x13c /usr/local/xenon/usr/lib/libxenon.a(console.o)
                0x0000000080002710                console_init
 .text.console_set_colors
                0x000000008000284c       0x14 /usr/local/xenon/usr/lib/libxenon.a(console.o)
                0x000000008000284c                console_set_colors
 .text.set_controller_data
                0x0000000080002860       0x54 /usr/local/xenon/usr/lib/libxenon.a(input.o)
                0x0000000080002860                set_controller_data
 .text.vfs_console_write
                0x00000000800028b4       0x64 /usr/local/xenon/usr/lib/libxenon.a(newlib.o)
                0x00000000800028b4                vfs_console_write
 .text.__malloc_lock
                0x0000000080002918       0x34 /usr/local/xenon/usr/lib/libxenon.a(newlib.o)
                0x0000000080002918                __malloc_lock
 .text.__malloc_unlock
                0x000000008000294c       0x34 /usr/local/xenon/usr/lib/libxenon.a(newlib.o)
                0x000000008000294c                __malloc_unlock
 .text._exit    0x0000000080002980       0x38 /usr/local/xenon/usr/lib/libxenon.a(newlib.o)
                0x0000000080002980                _exit
 .text.sbrk     0x00000000800029b8       0x50 /usr/local/xenon/usr/lib/libxenon.a(newlib.o)
                0x00000000800029b8                sbrk
 .text.abort    0x0000000080002a08       0x2c /usr/local/xenon/usr/lib/libxenon.a(newlib.o)
                0x0000000080002a08                abort
 .text.isatty   0x0000000080002a34        0x8 /usr/local/xenon/usr/lib/libxenon.a(newlib.o)
                0x0000000080002a34                isatty
 .text.__release_handle
                0x0000000080002a3c       0x4c /usr/local/xenon/usr/lib/libxenon.a(newlib.o)
                0x0000000080002a3c                __release_handle
 .text.__get_handle
                0x0000000080002a88       0x24 /usr/local/xenon/usr/lib/libxenon.a(newlib.o)
                0x0000000080002a88                __get_handle
 .text.read     0x0000000080002aac       0x98 /usr/local/xenon/usr/lib/libxenon.a(newlib.o)
                0x0000000080002aac                read
 .text.write    0x0000000080002b44       0x9c /usr/local/xenon/usr/lib/libxenon.a(newlib.o)
                0x0000000080002b44                write
 .text.fstat    0x0000000080002be0       0x9c /usr/local/xenon/usr/lib/libxenon.a(newlib.o)
                0x0000000080002be0                fstat
 .text.lseek    0x0000000080002c7c       0x98 /usr/local/xenon/usr/lib/libxenon.a(newlib.o)
                0x0000000080002c7c                lseek
 .text.close    0x0000000080002d14       0x80 /usr/local/xenon/usr/lib/libxenon.a(newlib.o)
                0x0000000080002d14                close
 .text.xenon_sbrk
                0x0000000080002d94       0x2c /usr/local/xenon/usr/lib/libxenon.a(xenon_syscalls.o)
 .text.xenon_gettimeofday
                0x0000000080002dc0       0xa4 /usr/local/xenon/usr/lib/libxenon.a(xenon_syscalls.o)
 .text.xenon_malloc_unlock
                0x0000000080002e64       0xac /usr/local/xenon/usr/lib/libxenon.a(xenon_syscalls.o)
 .text.xenon_malloc_lock
                0x0000000080002f10       0x94 /usr/local/xenon/usr/lib/libxenon.a(xenon_syscalls.o)
 .text.shutdown_drivers
                0x0000000080002fa4       0x24 /usr/local/xenon/usr/lib/libxenon.a(xenon_syscalls.o)
                0x0000000080002fa4                shutdown_drivers
 .text.try_return_to_xell
                0x0000000080002fc8       0x50 /usr/local/xenon/usr/lib/libxenon.a(xenon_syscalls.o)
                0x0000000080002fc8                try_return_to_xell
 .text.xenon_exit
                0x0000000080003018      0x154 /usr/local/xenon/usr/lib/libxenon.a(xenon_syscalls.o)
 .text          0x000000008000316c       0x84 /usr/local/xenon/usr/lib/libxenon.a(atomic.o)
                0x000000008000316c                atomic_inc
                0x0000000080003180                atomic_dec
                0x0000000080003194                atomic_clearset
                0x00000000800031ac                lock
                0x00000000800031e0                unlock
 .text          0x00000000800031f0       0xa8 /usr/local/xenon/usr/lib/libxenon.a(cache.o)
                0x00000000800031f0                memdcbt
                0x0000000080003218                memdcbst
                0x0000000080003240                memdcbf
                0x0000000080003268                memicbi
 .text.flush_console
                0x0000000080003298       0x4c /usr/local/xenon/usr/lib/libxenon.a(c_except.o)
 .text.crashdump
                0x00000000800032e4      0x2bc /usr/local/xenon/usr/lib/libxenon.a(c_except.o)
                0x00000000800032e4                crashdump
 .text.usbctrl_queue_intreq
                0x00000000800035a0       0x48 /usr/local/xenon/usr/lib/libxenon.a(usbctrl.o)
 .text.usbctrl_set_led_callback
                0x00000000800035e8       0x3c /usr/local/xenon/usr/lib/libxenon.a(usbctrl.o)
 .text.usbctrl_detach
                0x0000000080003624       0x88 /usr/local/xenon/usr/lib/libxenon.a(usbctrl.o)
 .text.usbctrl_set_leds
                0x00000000800036ac      0x118 /usr/local/xenon/usr/lib/libxenon.a(usbctrl.o)
                0x00000000800036ac                usbctrl_set_leds
 .text.usbctrl_ireq_callback
                0x00000000800037c4      0x25c /usr/local/xenon/usr/lib/libxenon.a(usbctrl.o)
 .text.usbctrl_poll
                0x0000000080003a20       0xb0 /usr/local/xenon/usr/lib/libxenon.a(usbctrl.o)
                0x0000000080003a20                usbctrl_poll
 .text.usbctrl_attach
                0x0000000080003ad0      0x320 /usr/local/xenon/usr/lib/libxenon.a(usbctrl.o)
 .text.usb_create_pipe
                0x0000000080003df0       0xd8 /usr/local/xenon/usr/lib/libxenon.a(usbd.o)
                0x0000000080003df0                usb_create_pipe
 .text.usb_open_pipe
                0x0000000080003ec8       0x84 /usr/local/xenon/usr/lib/libxenon.a(usbd.o)
                0x0000000080003ec8                usb_open_pipe
 .text.usb_destroy_all_pipes
                0x0000000080003f4c       0x74 /usr/local/xenon/usr/lib/libxenon.a(usbd.o)
                0x0000000080003f4c                usb_destroy_all_pipes
 .text.usb_destroy_device
                0x0000000080003fc0       0x4c /usr/local/xenon/usr/lib/libxenon.a(usbd.o)
                0x0000000080003fc0                usb_destroy_device
 .text.usb_create_device
                0x000000008000400c       0x78 /usr/local/xenon/usr/lib/libxenon.a(usbd.o)
                0x000000008000400c                usb_create_device
 .text.usb_make_request
                0x0000000080004084       0x8c /usr/local/xenon/usr/lib/libxenon.a(usbd.o)
                0x0000000080004084                usb_make_request
 .text.usb_poll
                0x0000000080004110       0x2c /usr/local/xenon/usr/lib/libxenon.a(usbd.o)
                0x0000000080004110                usb_poll
 .text.usb_daemon
                0x000000008000413c       0x38 /usr/local/xenon/usr/lib/libxenon.a(usbd.o)
                0x000000008000413c                usb_daemon
 .text.usb_free_request
                0x0000000080004174       0x48 /usr/local/xenon/usr/lib/libxenon.a(usbd.o)
                0x0000000080004174                usb_free_request
 .text.usb_delay_ms
                0x00000000800041bc       0x24 /usr/local/xenon/usr/lib/libxenon.a(usbd.o)
                0x00000000800041bc                usb_delay_ms
 .text.usb_queue_request
                0x00000000800041e0       0x50 /usr/local/xenon/usr/lib/libxenon.a(usbd.o)
                0x00000000800041e0                usb_queue_request
 .text.usb_wait_request
                0x0000000080004230       0x40 /usr/local/xenon/usr/lib/libxenon.a(usbd.o)
                0x0000000080004230                usb_wait_request
 .text.usb_sync_request
                0x0000000080004270       0x34 /usr/local/xenon/usr/lib/libxenon.a(usbd.o)
                0x0000000080004270                usb_sync_request
 .text.usb_new_address
                0x00000000800042a4       0x30 /usr/local/xenon/usr/lib/libxenon.a(usbd.o)
                0x00000000800042a4                usb_new_address
 .text.usb_set_ep0mps
                0x00000000800042d4       0x60 /usr/local/xenon/usr/lib/libxenon.a(usbd.o)
                0x00000000800042d4                usb_set_ep0mps
 .text.usb_clear_stall
                0x0000000080004334      0x100 /usr/local/xenon/usr/lib/libxenon.a(usbd.o)
                0x0000000080004334                usb_clear_stall
 .text.usb_std_request
                0x0000000080004434      0x234 /usr/local/xenon/usr/lib/libxenon.a(usbd.o)
                0x0000000080004434                usb_std_request
 .text.usb_simple_request
                0x0000000080004668       0x18 /usr/local/xenon/usr/lib/libxenon.a(usbd.o)
                0x0000000080004668                usb_simple_request
 .text.usb_set_address
                0x0000000080004680       0x9c /usr/local/xenon/usr/lib/libxenon.a(usbd.o)
                0x0000000080004680                usb_set_address
 .text.usb_set_configuration
                0x000000008000471c       0x14 /usr/local/xenon/usr/lib/libxenon.a(usbd.o)
                0x000000008000471c                usb_set_configuration
 .text.usb_get_descriptor
                0x0000000080004730       0x24 /usr/local/xenon/usr/lib/libxenon.a(usbd.o)
                0x0000000080004730                usb_get_descriptor
 .text.usb_get_string
                0x0000000080004754      0x104 /usr/local/xenon/usr/lib/libxenon.a(usbd.o)
                0x0000000080004754                usb_get_string
 .text.usb_get_device_descriptor
                0x0000000080004858       0x90 /usr/local/xenon/usr/lib/libxenon.a(usbd.o)
                0x0000000080004858                usb_get_device_descriptor
 .text.usb_get_config_descriptor
                0x00000000800048e8       0x8c /usr/local/xenon/usr/lib/libxenon.a(usbd.o)
                0x00000000800048e8                usb_get_config_descriptor
 .text.usb_get_device_status
                0x0000000080004974       0x1c /usr/local/xenon/usr/lib/libxenon.a(usbd.o)
                0x0000000080004974                usb_get_device_status
 .text.usb_complete_request
                0x0000000080004990       0x3c /usr/local/xenon/usr/lib/libxenon.a(usbd.o)
                0x0000000080004990                usb_complete_request
 .text.usb_initroot
                0x00000000800049cc      0x150 /usr/local/xenon/usr/lib/libxenon.a(usbd.o)
                0x00000000800049cc                usb_initroot
 .text.usb_find_cfg_descr
                0x0000000080004b1c       0x54 /usr/local/xenon/usr/lib/libxenon.a(usbd.o)
                0x0000000080004b1c                usb_find_cfg_descr
 .text.usb_find_driver
                0x0000000080004b70      0x158 /usr/local/xenon/usr/lib/libxenon.a(usbdevs.o)
                0x0000000080004b70                usb_find_driver
 .text.usbhid_detach
                0x0000000080004cc8        0x8 /usr/local/xenon/usr/lib/libxenon.a(usbhid.o)
 .text.usbhid_attach
                0x0000000080004cd0      0x164 /usr/local/xenon/usr/lib/libxenon.a(usbhid.o)
 .text.usbhid_kbd_scan1.isra.0.part.1
                0x0000000080004e34       0x94 /usr/local/xenon/usr/lib/libxenon.a(usbhid.o)
 .text.usbhid_ireq_callback
                0x0000000080004ec8      0x18c /usr/local/xenon/usr/lib/libxenon.a(usbhid.o)
 .text.usbhub_markdetached1
                0x0000000080005054       0x14 /usr/local/xenon/usr/lib/libxenon.a(usbhub.o)
 .text.usbhub_get_port_status
                0x0000000080005068       0x38 /usr/local/xenon/usr/lib/libxenon.a(usbhub.o)
 .text.usbhub_ireq_callback
                0x00000000800050a0       0x8c /usr/local/xenon/usr/lib/libxenon.a(usbhub.o)
 .text.usbhub_map_tree1
                0x000000008000512c       0x7c /usr/local/xenon/usr/lib/libxenon.a(usbhub.o)
 .text.usbhub_detach
                0x00000000800051a8      0x13c /usr/local/xenon/usr/lib/libxenon.a(usbhub.o)
 .text.usbhub_attach
                0x00000000800052e4      0x1a4 /usr/local/xenon/usr/lib/libxenon.a(usbhub.o)
 .text.usbhub_map_tree
                0x0000000080005488       0x18 /usr/local/xenon/usr/lib/libxenon.a(usbhub.o)
                0x0000000080005488                usbhub_map_tree
 .text.usbhub_map_from_device
                0x00000000800054a0       0x14 /usr/local/xenon/usr/lib/libxenon.a(usbhub.o)
                0x00000000800054a0                usbhub_map_from_device
 .text.usbhub_scan1
                0x00000000800054b4      0x558 /usr/local/xenon/usr/lib/libxenon.a(usbhub.o)
 .text.usb_scan
                0x0000000080005a0c       0x10 /usr/local/xenon/usr/lib/libxenon.a(usbhub.o)
                0x0000000080005a0c                usb_scan
 .text.usb_init_one_ohci
                0x0000000080005a1c       0xcc /usr/local/xenon/usr/lib/libxenon.a(usbmain.o)
 .text.usb_shutdown
                0x0000000080005ae8       0xb4 /usr/local/xenon/usr/lib/libxenon.a(usbmain.o)
                0x0000000080005ae8                usb_shutdown
 .text.usb_init
                0x0000000080005b9c      0x108 /usr/local/xenon/usr/lib/libxenon.a(usbmain.o)
                0x0000000080005b9c                usb_init
 .text.usb_do_poll
                0x0000000080005ca4       0x90 /usr/local/xenon/usr/lib/libxenon.a(usbmain.o)
                0x0000000080005ca4                usb_do_poll
 .text.qtd_fill
                0x0000000080005d34       0xa4 /usr/local/xenon/usr/lib/libxenon.a(tinyehci.o)
 .text.ehci_qtd_alloc
                0x0000000080005dd8       0x78 /usr/local/xenon/usr/lib/libxenon.a(tinyehci.o)
 .text.handshake.isra.5
                0x0000000080005e50      0x178 /usr/local/xenon/usr/lib/libxenon.a(tinyehci.o)
 .text.ehci_mem_init
                0x0000000080005fc8       0xf8 /usr/local/xenon/usr/lib/libxenon.a(tinyehci.o)
                0x0000000080005fc8                ehci_mem_init
 .text.qh_urb_transaction
                0x00000000800060c0      0x1c0 /usr/local/xenon/usr/lib/libxenon.a(tinyehci.o)
                0x00000000800060c0                qh_urb_transaction
 .text.ehci_do_urb
                0x0000000080006280      0x3c8 /usr/local/xenon/usr/lib/libxenon.a(tinyehci.o)
                0x0000000080006280                ehci_do_urb
 .text.ehci_control_message
                0x0000000080006648       0x84 /usr/local/xenon/usr/lib/libxenon.a(tinyehci.o)
                0x0000000080006648                ehci_control_message
 .text.ehci_bulk_message
                0x00000000800066cc       0x48 /usr/local/xenon/usr/lib/libxenon.a(tinyehci.o)
                0x00000000800066cc                ehci_bulk_message
 .text.__send_cbw
                0x0000000080006714      0x118 /usr/local/xenon/usr/lib/libxenon.a(tinyehci.o)
 .text.ehci_reset_port_old
                0x000000008000682c      0x1a4 /usr/local/xenon/usr/lib/libxenon.a(tinyehci.o)
                0x000000008000682c                ehci_reset_port_old
 .text.ehci_adquire_port
                0x00000000800069d0       0x88 /usr/local/xenon/usr/lib/libxenon.a(tinyehci.o)
                0x00000000800069d0                ehci_adquire_port
 .text.ehci_reset_usb_port
                0x0000000080006a58      0x174 /usr/local/xenon/usr/lib/libxenon.a(tinyehci.o)
                0x0000000080006a58                ehci_reset_usb_port
 .text.ehci_reset_port2
                0x0000000080006bcc       0x6c /usr/local/xenon/usr/lib/libxenon.a(tinyehci.o)
                0x0000000080006bcc                ehci_reset_port2
 .text.USB_FreeDescriptors
                0x0000000080006c38       0xa8 /usr/local/xenon/usr/lib/libxenon.a(tinyehci.o)
                0x0000000080006c38                USB_FreeDescriptors
 .text.USB_GetDescriptors
                0x0000000080006ce0      0x340 /usr/local/xenon/usr/lib/libxenon.a(tinyehci.o)
                0x0000000080006ce0                USB_GetDescriptors
 .text.USB_GetConfiguration
                0x0000000080007020       0x7c /usr/local/xenon/usr/lib/libxenon.a(tinyehci.o)
                0x0000000080007020                USB_GetConfiguration
 .text.USB_SetConfiguration
                0x000000008000709c       0x1c /usr/local/xenon/usr/lib/libxenon.a(tinyehci.o)
                0x000000008000709c                USB_SetConfiguration
 .text.USB_SetAlternativeInterface
                0x00000000800070b8       0x28 /usr/local/xenon/usr/lib/libxenon.a(tinyehci.o)
                0x00000000800070b8                USB_SetAlternativeInterface
 .text.USB_ClearHalt
                0x00000000800070e0       0x1c /usr/local/xenon/usr/lib/libxenon.a(tinyehci.o)
                0x00000000800070e0                USB_ClearHalt
 .text.ehci_init_port
                0x00000000800070fc      0x14c /usr/local/xenon/usr/lib/libxenon.a(tinyehci.o)
                0x00000000800070fc                ehci_init_port
 .text.ehci_reset_port
                0x0000000080007248       0x50 /usr/local/xenon/usr/lib/libxenon.a(tinyehci.o)
                0x0000000080007248                ehci_reset_port
 .text.ehci_discover
                0x0000000080007298       0x54 /usr/local/xenon/usr/lib/libxenon.a(tinyehci.o)
                0x0000000080007298                ehci_discover
 .text.EHCI_do_one
                0x00000000800072ec      0x144 /usr/local/xenon/usr/lib/libxenon.a(tinyehci.o)
 .text.my_memcmp
                0x0000000080007430       0x44 /usr/local/xenon/usr/lib/libxenon.a(tinyehci.o)
                0x0000000080007430                my_memcmp
 .text.USBStorage_Close
                0x0000000080007474       0x44 /usr/local/xenon/usr/lib/libxenon.a(tinyehci.o)
                0x0000000080007474                USBStorage_Close
 .text.USBStorage_ReadCapacity
                0x00000000800074b8       0xb8 /usr/local/xenon/usr/lib/libxenon.a(tinyehci.o)
                0x00000000800074b8                USBStorage_ReadCapacity
 .text.USBStorage_MountLUN
                0x0000000080007570      0x1f4 /usr/local/xenon/usr/lib/libxenon.a(tinyehci.o)
                0x0000000080007570                USBStorage_MountLUN
 .text.__usbstorage_reset.isra.9
                0x0000000080007764      0x1a8 /usr/local/xenon/usr/lib/libxenon.a(tinyehci.o)
 .text.USBStorage_Open
                0x000000008000790c      0x3b8 /usr/local/xenon/usr/lib/libxenon.a(tinyehci.o)
                0x000000008000790c                USBStorage_Open
 .text.__cycle.constprop.13
                0x0000000080007cc4      0x268 /usr/local/xenon/usr/lib/libxenon.a(tinyehci.o)
 .text.USBStorage_Inquiry
                0x0000000080007f2c       0xa0 /usr/local/xenon/usr/lib/libxenon.a(tinyehci.o)
                0x0000000080007f2c                USBStorage_Inquiry
 .text.USBStorage_Try_Device
                0x0000000080007fcc      0x19c /usr/local/xenon/usr/lib/libxenon.a(tinyehci.o)
                0x0000000080007fcc                USBStorage_Try_Device
 .text.USBStorage_Init
                0x0000000080008168      0x18c /usr/local/xenon/usr/lib/libxenon.a(tinyehci.o)
                0x0000000080008168                USBStorage_Init
 .text.EHCI_Init
                0x00000000800082f4       0x50 /usr/local/xenon/usr/lib/libxenon.a(tinyehci.o)
                0x00000000800082f4                EHCI_Init
 .text.xenon_smc_send_message
                0x0000000080008344       0x98 /usr/local/xenon/usr/lib/libxenon.a(xenon_smc.o)
                0x0000000080008344                xenon_smc_send_message
 .text.xenon_smc_receive_message
                0x00000000800083dc       0x80 /usr/local/xenon/usr/lib/libxenon.a(xenon_smc.o)
                0x00000000800083dc                xenon_smc_receive_message
 .text.xenon_smc_handle_bulk
                0x000000008000845c       0x90 /usr/local/xenon/usr/lib/libxenon.a(xenon_smc.o)
                0x000000008000845c                xenon_smc_handle_bulk
 .text.xenon_smc_receive_response
                0x00000000800084ec       0x48 /usr/local/xenon/usr/lib/libxenon.a(xenon_smc.o)
                0x00000000800084ec                xenon_smc_receive_response
 .text.xenon_smc_ana_write
                0x0000000080008534       0x9c /usr/local/xenon/usr/lib/libxenon.a(xenon_smc.o)
                0x0000000080008534                xenon_smc_ana_write
 .text.xenon_smc_ana_read
                0x00000000800085d0       0xc0 /usr/local/xenon/usr/lib/libxenon.a(xenon_smc.o)
                0x00000000800085d0                xenon_smc_ana_read
 .text.xenon_smc_i2c_ddc_lock
                0x0000000080008690       0x78 /usr/local/xenon/usr/lib/libxenon.a(xenon_smc.o)
                0x0000000080008690                xenon_smc_i2c_ddc_lock
 .text.xenon_smc_i2c_write
                0x0000000080008708       0xb0 /usr/local/xenon/usr/lib/libxenon.a(xenon_smc.o)
                0x0000000080008708                xenon_smc_i2c_write
 .text.xenon_smc_i2c_read
                0x00000000800087b8       0xc8 /usr/local/xenon/usr/lib/libxenon.a(xenon_smc.o)
                0x00000000800087b8                xenon_smc_i2c_read
 .text.xenon_smc_power_shutdown
                0x0000000080008880       0x40 /usr/local/xenon/usr/lib/libxenon.a(xenon_smc.o)
                0x0000000080008880                xenon_smc_power_shutdown
 .text.xenon_smc_power_reboot
                0x00000000800088c0       0x48 /usr/local/xenon/usr/lib/libxenon.a(xenon_smc.o)
                0x00000000800088c0                xenon_smc_power_reboot
 .text.xenon_smc_read_avpack
                0x0000000080008908       0x48 /usr/local/xenon/usr/lib/libxenon.a(xenon_smc.o)
                0x0000000080008908                xenon_smc_read_avpack
 .text.xenon_smc_set_fan_algorithm
                0x0000000080008950       0x3c /usr/local/xenon/usr/lib/libxenon.a(xenon_smc.o)
                0x0000000080008950                xenon_smc_set_fan_algorithm
 .text.wakeup_cpus
                0x000000008000898c       0xb8 /usr/local/xenon/usr/lib/libxenon.a(xenon_power.o)
                0x000000008000898c                wakeup_cpus
 .text.prepare_sleep
                0x0000000080008a44       0x70 /usr/local/xenon/usr/lib/libxenon.a(xenon_power.o)
                0x0000000080008a44                prepare_sleep
 .text.xenon_thread_sleep
                0x0000000080008ab4       0x5c /usr/local/xenon/usr/lib/libxenon.a(xenon_power.o)
                0x0000000080008ab4                xenon_thread_sleep
 .text.xenon_set_speed
                0x0000000080008b10      0x348 /usr/local/xenon/usr/lib/libxenon.a(xenon_power.o)
                0x0000000080008b10                xenon_set_speed
 .text.xenon_run_thread_task
                0x0000000080008e58       0x38 /usr/local/xenon/usr/lib/libxenon.a(xenon_power.o)
                0x0000000080008e58                xenon_run_thread_task
 .text.xenon_is_thread_task_running
                0x0000000080008e90       0x20 /usr/local/xenon/usr/lib/libxenon.a(xenon_power.o)
                0x0000000080008e90                xenon_is_thread_task_running
 .text.xenon_thread_startup
                0x0000000080008eb0       0x4c /usr/local/xenon/usr/lib/libxenon.a(xenon_power.o)
                0x0000000080008eb0                xenon_thread_startup
 .text.xenon_set_single_thread_mode
                0x0000000080008efc       0x94 /usr/local/xenon/usr/lib/libxenon.a(xenon_power.o)
                0x0000000080008efc                xenon_set_single_thread_mode
 .text.xenon_make_it_faster
                0x0000000080008f90       0xec /usr/local/xenon/usr/lib/libxenon.a(xenon_power.o)
                0x0000000080008f90                xenon_make_it_faster
 .text.putch    0x000000008000907c       0x58 /usr/local/xenon/usr/lib/libxenon.a(xenon_uart.o)
                0x000000008000907c                putch
 .text.kbhit    0x00000000800090d4       0x24 /usr/local/xenon/usr/lib/libxenon.a(xenon_uart.o)
                0x00000000800090d4                kbhit
 .text.getch    0x00000000800090f8       0x38 /usr/local/xenon/usr/lib/libxenon.a(xenon_uart.o)
                0x00000000800090f8                getch
 .text.sfcx_read_page
                0x0000000080009130      0x148 /usr/local/xenon/usr/lib/libxenon.a(xenon_sfcx.o)
                0x0000000080009130                sfcx_read_page
 .text.sfcx_init
                0x0000000080009278      0x2d4 /usr/local/xenon/usr/lib/libxenon.a(xenon_sfcx.o)
                0x0000000080009278                sfcx_init
 .text.xenon_config_init
                0x000000008000954c       0xa0 /usr/local/xenon/usr/lib/libxenon.a(xenon_config.o)
                0x000000008000954c                xenon_config_init
 .text.xenon_config_get_avregion
                0x00000000800095ec       0x94 /usr/local/xenon/usr/lib/libxenon.a(xenon_config.o)
                0x00000000800095ec                xenon_config_get_avregion
 .text.xenon_config_get_mac_addr
                0x0000000080009680       0x9c /usr/local/xenon/usr/lib/libxenon.a(xenon_config.o)
                0x0000000080009680                xenon_config_get_mac_addr
 .text.xenon_config_get_vid_delta
                0x000000008000971c       0x24 /usr/local/xenon/usr/lib/libxenon.a(xenon_config.o)
                0x000000008000971c                xenon_config_get_vid_delta
 .text.determine_broken
                0x0000000080009740       0x80 /usr/local/xenon/usr/lib/libxenon.a(edram.o)
 .text.edram_write
                0x00000000800097c0       0xa4 /usr/local/xenon/usr/lib/libxenon.a(edram.o)
 .text.edram_read
                0x0000000080009864       0x90 /usr/local/xenon/usr/lib/libxenon.a(edram.o)
 .text.edram_rmw
                0x00000000800098f4       0x5c /usr/local/xenon/usr/lib/libxenon.a(edram.o)
 .text.edram_p3
                0x0000000080009950       0xa8 /usr/local/xenon/usr/lib/libxenon.a(edram.o)
                0x0000000080009950                edram_p3
 .text.edram_p4
                0x00000000800099f8       0x94 /usr/local/xenon/usr/lib/libxenon.a(edram.o)
                0x00000000800099f8                edram_p4
 .text.edram_p2
                0x0000000080009a8c      0xc54 /usr/local/xenon/usr/lib/libxenon.a(edram.o)
                0x0000000080009a8c                edram_p2
 .text.edram_pc
                0x000000008000a6e0       0xc4 /usr/local/xenon/usr/lib/libxenon.a(edram.o)
                0x000000008000a6e0                edram_pc
 .text.edram_compare_crc
                0x000000008000a7a4      0x124 /usr/local/xenon/usr/lib/libxenon.a(edram.o)
                0x000000008000a7a4                edram_compare_crc
 .text.edram_init_state1
                0x000000008000a8c8      0x1b0 /usr/local/xenon/usr/lib/libxenon.a(edram.o)
                0x000000008000a8c8                edram_init_state1
 .text.edram_72c
                0x000000008000aa78      0x920 /usr/local/xenon/usr/lib/libxenon.a(edram.o)
                0x000000008000aa78                edram_72c
 .text.edram_974
                0x000000008000b398      0x1cc /usr/local/xenon/usr/lib/libxenon.a(edram.o)
                0x000000008000b398                edram_974
 .text.edram_9e4
                0x000000008000b564      0x81c /usr/local/xenon/usr/lib/libxenon.a(edram.o)
                0x000000008000b564                edram_9e4
 .text.edram_4c
                0x000000008000bd80     0x16b8 /usr/local/xenon/usr/lib/libxenon.a(edram.o)
                0x000000008000bd80                edram_4c
 .text.edram_init
                0x000000008000d438      0x5d0 /usr/local/xenon/usr/lib/libxenon.a(edram.o)
                0x000000008000d438                edram_init
 .text.Xe_pWriteReg
                0x000000008000da08       0x2c /usr/local/xenon/usr/lib/libxenon.a(xe.o)
 .text.Xe_pSyncToDevice
                0x000000008000da34       0x28 /usr/local/xenon/usr/lib/libxenon.a(xe.o)
                0x000000008000da34                Xe_pSyncToDevice
 .text.Xe_pSyncFromDevice
                0x000000008000da5c       0x28 /usr/local/xenon/usr/lib/libxenon.a(xe.o)
                0x000000008000da5c                Xe_pSyncFromDevice
 .text.Xe_pInvalidateGpuCache_Primary
                0x000000008000da84      0x1c4 /usr/local/xenon/usr/lib/libxenon.a(xe.o)
                0x000000008000da84                Xe_pInvalidateGpuCache_Primary
 .text.Xe_pRBCommitPrimary
                0x000000008000dc48       0x70 /usr/local/xenon/usr/lib/libxenon.a(xe.o)
                0x000000008000dc48                Xe_pRBCommitPrimary
 .text.Xe_pRBKickSegment
                0x000000008000dcb8       0xd0 /usr/local/xenon/usr/lib/libxenon.a(xe.o)
                0x000000008000dcb8                Xe_pRBKickSegment
 .text.Xe_pSetSurfaceClip
                0x000000008000dd88       0x60 /usr/local/xenon/usr/lib/libxenon.a(xe.o)
                0x000000008000dd88                Xe_pSetSurfaceClip
 .text.Xe_pResetRingbuffer
                0x000000008000dde8       0x2c /usr/local/xenon/usr/lib/libxenon.a(xe.o)
                0x000000008000dde8                Xe_pResetRingbuffer
 .text.Xe_pSetupRingbuffer
                0x000000008000de14       0x44 /usr/local/xenon/usr/lib/libxenon.a(xe.o)
                0x000000008000de14                Xe_pSetupRingbuffer
 .text.Xe_pEnableWriteback
                0x000000008000de58       0x30 /usr/local/xenon/usr/lib/libxenon.a(xe.o)
                0x000000008000de58                Xe_pEnableWriteback
 .text.Xe_pGInit0
                0x000000008000de88      0x454 /usr/local/xenon/usr/lib/libxenon.a(xe.o)
                0x000000008000de88                Xe_pGInit0
 .text.Xe_pGInit1
                0x000000008000e2dc       0xc4 /usr/local/xenon/usr/lib/libxenon.a(xe.o)
                0x000000008000e2dc                Xe_pGInit1
 .text.Xe_pGInit2
                0x000000008000e3a0       0x50 /usr/local/xenon/usr/lib/libxenon.a(xe.o)
                0x000000008000e3a0                Xe_pGInit2
 .text.Xe_pGInit3
                0x000000008000e3f0       0x50 /usr/local/xenon/usr/lib/libxenon.a(xe.o)
                0x000000008000e3f0                Xe_pGInit3
 .text.Xe_pGInit4
                0x000000008000e440       0x88 /usr/local/xenon/usr/lib/libxenon.a(xe.o)
                0x000000008000e440                Xe_pGInit4
 .text.Xe_pGInit5
                0x000000008000e4c8      0x12c /usr/local/xenon/usr/lib/libxenon.a(xe.o)
                0x000000008000e4c8                Xe_pGInit5
 .text.Xe_pGInit6
                0x000000008000e5f4       0xc8 /usr/local/xenon/usr/lib/libxenon.a(xe.o)
                0x000000008000e5f4                Xe_pGInit6
 .text.Xe_pGInit7
                0x000000008000e6bc       0x50 /usr/local/xenon/usr/lib/libxenon.a(xe.o)
                0x000000008000e6bc                Xe_pGInit7
 .text.Xe_pGInit8
                0x000000008000e70c       0x1c /usr/local/xenon/usr/lib/libxenon.a(xe.o)
                0x000000008000e70c                Xe_pGInit8
 .text.Xe_pGInit9
                0x000000008000e728       0xc8 /usr/local/xenon/usr/lib/libxenon.a(xe.o)
                0x000000008000e728                Xe_pGInit9
 .text.Xe_pGInit10
                0x000000008000e7f0       0xa8 /usr/local/xenon/usr/lib/libxenon.a(xe.o)
                0x000000008000e7f0                Xe_pGInit10
 .text.Xe_pGInit
                0x000000008000e898      0x16c /usr/local/xenon/usr/lib/libxenon.a(xe.o)
                0x000000008000e898                Xe_pGInit
 .text.Xe_pInvalidateGpuCache
                0x000000008000ea04       0xbc /usr/local/xenon/usr/lib/libxenon.a(xe.o)
                0x000000008000ea04                Xe_pInvalidateGpuCache
 .text.Xe_pBlockUntilIdle
                0x000000008000eac0        0xc /usr/local/xenon/usr/lib/libxenon.a(xe.o)
                0x000000008000eac0                Xe_pBlockUntilIdle
 .text.Xe_Fatal
                0x000000008000eacc       0x9c /usr/local/xenon/usr/lib/libxenon.a(xe.o)
                0x000000008000eacc                Xe_Fatal
 .text.Xe_pWaitReady
                0x000000008000eb68       0x50 /usr/local/xenon/usr/lib/libxenon.a(xe.o)
                0x000000008000eb68                Xe_pWaitReady
 .text.Xe_pResetCP
                0x000000008000ebb8      0x124 /usr/local/xenon/usr/lib/libxenon.a(xe.o)
                0x000000008000ebb8                Xe_pResetCP
 .text.Xe_pLoadUcodes
                0x000000008000ecdc       0xfc /usr/local/xenon/usr/lib/libxenon.a(xe.o)
                0x000000008000ecdc                Xe_pLoadUcodes
 .text.Xe_pSetup
                0x000000008000edd8       0xd8 /usr/local/xenon/usr/lib/libxenon.a(xe.o)
                0x000000008000edd8                Xe_pSetup
 .text.Xe_pMasterInit
                0x000000008000eeb0       0xcc /usr/local/xenon/usr/lib/libxenon.a(xe.o)
                0x000000008000eeb0                Xe_pMasterInit
 .text.Xe_pRBKick
                0x000000008000ef7c       0x94 /usr/local/xenon/usr/lib/libxenon.a(xe.o)
                0x000000008000ef7c                Xe_pRBKick
 .text.Xe_pAlloc
                0x000000008000f010       0x64 /usr/local/xenon/usr/lib/libxenon.a(xe.o)
                0x000000008000f010                Xe_pAlloc
 .text.Xe_pRBAlloc
                0x000000008000f074       0x54 /usr/local/xenon/usr/lib/libxenon.a(xe.o)
                0x000000008000f074                Xe_pRBAlloc
 .text.Xe_Init  0x000000008000f0c8      0x134 /usr/local/xenon/usr/lib/libxenon.a(xe.o)
                0x000000008000f0c8                Xe_Init
 .text.Xe_Execute
                0x000000008000f1fc       0x34 /usr/local/xenon/usr/lib/libxenon.a(xe.o)
                0x000000008000f1fc                Xe_Execute
 .text.Xe_pDebugSync
                0x000000008000f230       0x98 /usr/local/xenon/usr/lib/libxenon.a(xe.o)
                0x000000008000f230                Xe_pDebugSync
 .text.xenos_write32
                0x000000008000f2c8       0x24 /usr/local/xenon/usr/lib/libxenon.a(xenos.o)
                0x000000008000f2c8                xenos_write32
 .text.xenos_read32
                0x000000008000f2ec       0x24 /usr/local/xenon/usr/lib/libxenon.a(xenos.o)
                0x000000008000f2ec                xenos_read32
 .text.xenos_ana_write
                0x000000008000f310       0x60 /usr/local/xenon/usr/lib/libxenon.a(xenos.o)
 .text.xenos_init_ana_new
                0x000000008000f370      0x334 /usr/local/xenon/usr/lib/libxenon.a(xenos.o)
                0x000000008000f370                xenos_init_ana_new
 .text.xenos_init_phase0
                0x000000008000f6a4       0x98 /usr/local/xenon/usr/lib/libxenon.a(xenos.o)
                0x000000008000f6a4                xenos_init_phase0
 .text.xenos_init_phase1
                0x000000008000f73c      0x3b0 /usr/local/xenon/usr/lib/libxenon.a(xenos.o)
                0x000000008000f73c                xenos_init_phase1
 .text.xenos_ana_preinit
                0x000000008000faec       0xd0 /usr/local/xenon/usr/lib/libxenon.a(xenos.o)
                0x000000008000faec                xenos_ana_preinit
 .text.xenos_set_mode_f1
                0x000000008000fbbc      0x148 /usr/local/xenon/usr/lib/libxenon.a(xenos.o)
                0x000000008000fbbc                xenos_set_mode_f1
 .text.xenos_set_mode_f2
                0x000000008000fd04      0x304 /usr/local/xenon/usr/lib/libxenon.a(xenos.o)
                0x000000008000fd04                xenos_set_mode_f2
 .text.xenos_set_mode
                0x0000000080010008      0x348 /usr/local/xenon/usr/lib/libxenon.a(xenos.o)
                0x0000000080010008                xenos_set_mode
 .text.xenos_autoset_mode
                0x0000000080010350      0x124 /usr/local/xenon/usr/lib/libxenon.a(xenos.o)
                0x0000000080010350                xenos_autoset_mode
 .text.xenos_init
                0x0000000080010474       0xe0 /usr/local/xenon/usr/lib/libxenon.a(xenos.o)
                0x0000000080010474                xenos_init
 .text.xenos_is_overscan
                0x0000000080010554       0x44 /usr/local/xenon/usr/lib/libxenon.a(xenos.o)
                0x0000000080010554                xenos_is_overscan
 .text.xenos_do_probe_ddc_edid
                0x0000000080010598      0x1a0 /usr/local/xenon/usr/lib/libxenon.a(xenos_edid.o)
                0x0000000080010598                xenos_do_probe_ddc_edid
 .text.xenos_ddc_read_edid
                0x0000000080010738      0x178 /usr/local/xenon/usr/lib/libxenon.a(xenos_edid.o)
 .text.xenos_get_edid
                0x00000000800108b0       0xa4 /usr/local/xenon/usr/lib/libxenon.a(xenos_edid.o)
                0x00000000800108b0                xenos_get_edid
 .text.xenos_detect_hdmi_monitor
                0x0000000080010954       0xe4 /usr/local/xenon/usr/lib/libxenon.a(xenos_edid.o)
                0x0000000080010954                xenos_detect_hdmi_monitor
 .text.phy_read
                0x0000000080010a38       0x88 /usr/local/xenon/usr/lib/libxenon.a(enet.o)
 .text.enet_linkoutput
                0x0000000080010ac0      0x124 /usr/local/xenon/usr/lib/libxenon.a(enet.o)
 .text.enet_init
                0x0000000080010be4      0x570 /usr/local/xenon/usr/lib/libxenon.a(enet.o)
                0x0000000080010be4                enet_init
 .text.enet_poll
                0x0000000080011154      0x1e4 /usr/local/xenon/usr/lib/libxenon.a(enet.o)
                0x0000000080011154                enet_poll
 .text.enet_quiesce
                0x0000000080011338       0x3c /usr/local/xenon/usr/lib/libxenon.a(enet.o)
                0x0000000080011338                enet_quiesce
 .text.mftb     0x0000000080011374       0x1c /usr/local/xenon/usr/lib/libxenon.a(network.o)
 .text.network_poll
                0x0000000080011390       0xdc /usr/local/xenon/usr/lib/libxenon.a(network.o)
                0x0000000080011390                network_poll
 .text.network_init
                0x000000008001146c      0x1e8 /usr/local/xenon/usr/lib/libxenon.a(network.o)
                0x000000008001146c                network_init
 .text.network_print_config
                0x0000000080011654       0x88 /usr/local/xenon/usr/lib/libxenon.a(network.o)
                0x0000000080011654                network_print_config
 .text.xenon_get_PCIBridgeRevisionID
                0x00000000800116dc       0x2c /usr/local/xenon/usr/lib/libxenon.a(xb360.o)
                0x00000000800116dc                xenon_get_PCIBridgeRevisionID
 .text.xenon_get_XenosID
                0x0000000080011708       0x28 /usr/local/xenon/usr/lib/libxenon.a(xb360.o)
                0x0000000080011708                xenon_get_XenosID
 .text.kmeminit
                0x0000000080011730       0x38 /usr/local/xenon/usr/lib/libxenon.a(lib_malloc.o)
                0x0000000080011730                kmeminit
 .text.kfree    0x0000000080011768       0xb8 /usr/local/xenon/usr/lib/libxenon.a(lib_malloc.o)
                0x0000000080011768                kfree
 .text.lib_outofmemory
                0x0000000080011820       0x28 /usr/local/xenon/usr/lib/libxenon.a(lib_malloc.o)
                0x0000000080011820                lib_outofmemory
 .text.kmalloc  0x0000000080011848      0x138 /usr/local/xenon/usr/lib/libxenon.a(lib_malloc.o)
                0x0000000080011848                kmalloc
 .text.kmem_init
                0x0000000080011980       0x64 /usr/local/xenon/usr/lib/libxenon.a(lib_malloc.o)
                0x0000000080011980                kmem_init
 .text.read32   0x00000000800119e4        0x8 /usr/local/xenon/usr/lib/libxenon.a(io.o)
                0x00000000800119e4                read32
 .text.read32n  0x00000000800119ec        0x8 /usr/local/xenon/usr/lib/libxenon.a(io.o)
                0x00000000800119ec                read32n
 .text.write32  0x00000000800119f4        0x8 /usr/local/xenon/usr/lib/libxenon.a(io.o)
                0x00000000800119f4                write32
 .text.write32n
                0x00000000800119fc        0x8 /usr/local/xenon/usr/lib/libxenon.a(io.o)
                0x00000000800119fc                write32n
 .text.tdelay   0x0000000080011a04       0x48 /usr/local/xenon/usr/lib/libxenon.a(time.o)
 .text.udelay   0x0000000080011a4c       0x24 /usr/local/xenon/usr/lib/libxenon.a(time.o)
                0x0000000080011a4c                udelay
 .text.mdelay   0x0000000080011a70       0x18 /usr/local/xenon/usr/lib/libxenon.a(time.o)
                0x0000000080011a70                mdelay
 .text.delay    0x0000000080011a88       0x18 /usr/local/xenon/usr/lib/libxenon.a(time.o)
                0x0000000080011a88                delay
 .text.dummy_attach
                0x0000000080011aa0        0x8 /usr/local/xenon/usr/lib/libxenon.a(dummy.o)
 .text.dummy_detach
                0x0000000080011aa8        0x8 /usr/local/xenon/usr/lib/libxenon.a(dummy.o)
 .text._ohci_allocept
                0x0000000080011ab0       0x64 /usr/local/xenon/usr/lib/libxenon.a(ohci.o)
 .text._ohci_allocxfer
                0x0000000080011b14       0x5c /usr/local/xenon/usr/lib/libxenon.a(ohci.o)
 .text.ohci_delete
                0x0000000080011b70        0x4 /usr/local/xenon/usr/lib/libxenon.a(ohci.o)
 .text.ohci_ept_setaddr
                0x0000000080011b74       0x38 /usr/local/xenon/usr/lib/libxenon.a(ohci.o)
 .text.ohci_ept_setmps
                0x0000000080011bac       0x44 /usr/local/xenon/usr/lib/libxenon.a(ohci.o)
 .text._ohci_queueept
                0x0000000080011bf0       0x5c /usr/local/xenon/usr/lib/libxenon.a(ohci.o)
 .text.ohci_ept_create
                0x0000000080011c4c      0x148 /usr/local/xenon/usr/lib/libxenon.a(ohci.o)
 .text.ohci_ept_cleartoggle
                0x0000000080011d94       0x64 /usr/local/xenon/usr/lib/libxenon.a(ohci.o)
 .text.ohci_stop
                0x0000000080011df8       0x30 /usr/local/xenon/usr/lib/libxenon.a(ohci.o)
 .text.ohci_ept_delete
                0x0000000080011e28      0x1fc /usr/local/xenon/usr/lib/libxenon.a(ohci.o)
 .text.ohci_start
                0x0000000080012024      0x1b0 /usr/local/xenon/usr/lib/libxenon.a(ohci.o)
 .text.ohci_roothub_strdscr
                0x00000000800121d4       0x6c /usr/local/xenon/usr/lib/libxenon.a(ohci.o)
 .text.ohci_intr
                0x0000000080012240      0x20c /usr/local/xenon/usr/lib/libxenon.a(ohci.o)
 .text._ohci_dma_alloc
                0x000000008001244c       0x50 /usr/local/xenon/usr/lib/libxenon.a(ohci.o)
 .text.ohci_create
                0x000000008001249c      0x2a8 /usr/local/xenon/usr/lib/libxenon.a(ohci.o)
 .text.ohci_xfer
                0x0000000080012744      0x7d8 /usr/local/xenon/usr/lib/libxenon.a(ohci.o)
 .text.getstringmaybe
                0x0000000080012f1c       0x6c /usr/local/xenon/usr/lib/libxenon.a(usbdebug.o)
 .text.usb_dbg_dumpportstatus
                0x0000000080012f88      0x25c /usr/local/xenon/usr/lib/libxenon.a(usbdebug.o)
                0x0000000080012f88                usb_dbg_dumpportstatus
 .text.usb_dbg_dumpdescriptors
                0x00000000800131e4      0x678 /usr/local/xenon/usr/lib/libxenon.a(usbdebug.o)
                0x00000000800131e4                usb_dbg_dumpdescriptors
 .text.ehci_maligned
                0x000000008001385c       0x9c /usr/local/xenon/usr/lib/libxenon.a(usb_os.o)
                0x000000008001385c                ehci_maligned
 .text.ehci_virt_to_dma
                0x00000000800138f8        0x8 /usr/local/xenon/usr/lib/libxenon.a(usb_os.o)
                0x00000000800138f8                ehci_virt_to_dma
 .text.ehci_dma_map_to
                0x0000000080013900       0x28 /usr/local/xenon/usr/lib/libxenon.a(usb_os.o)
                0x0000000080013900                ehci_dma_map_to
 .text.ehci_dma_map_from
                0x0000000080013928       0x28 /usr/local/xenon/usr/lib/libxenon.a(usb_os.o)
                0x0000000080013928                ehci_dma_map_from
 .text.ehci_dma_map_bidir
                0x0000000080013950       0x28 /usr/local/xenon/usr/lib/libxenon.a(usb_os.o)
                0x0000000080013950                ehci_dma_map_bidir
 .text.ehci_dma_unmap_to
                0x0000000080013978       0x24 /usr/local/xenon/usr/lib/libxenon.a(usb_os.o)
                0x0000000080013978                ehci_dma_unmap_to
 .text.ehci_dma_unmap_from
                0x000000008001399c       0x24 /usr/local/xenon/usr/lib/libxenon.a(usb_os.o)
                0x000000008001399c                ehci_dma_unmap_from
 .text.ehci_dma_unmap_bidir
                0x00000000800139c0       0x24 /usr/local/xenon/usr/lib/libxenon.a(usb_os.o)
                0x00000000800139c0                ehci_dma_unmap_bidir
 .text.ehci_usleep
                0x00000000800139e4       0x20 /usr/local/xenon/usr/lib/libxenon.a(usb_os.o)
                0x00000000800139e4                ehci_usleep
 .text.ehci_msleep
                0x0000000080013a04       0x20 /usr/local/xenon/usr/lib/libxenon.a(usb_os.o)
                0x0000000080013a04                ehci_msleep
 .text.USB_Alloc
                0x0000000080013a24       0x20 /usr/local/xenon/usr/lib/libxenon.a(usb_os.o)
                0x0000000080013a24                USB_Alloc
 .text.USB_Free
                0x0000000080013a44       0x20 /usr/local/xenon/usr/lib/libxenon.a(usb_os.o)
                0x0000000080013a44                USB_Free
 .text.xenon_gpio_control
                0x0000000080013a64       0x68 /usr/local/xenon/usr/lib/libxenon.a(xenon_gpio.o)
                0x0000000080013a64                xenon_gpio_control
 .text.xenon_gpio_set_oe
                0x0000000080013acc       0x44 /usr/local/xenon/usr/lib/libxenon.a(xenon_gpio.o)
                0x0000000080013acc                xenon_gpio_set_oe
 .text.xenon_gpio_set
                0x0000000080013b10       0x44 /usr/local/xenon/usr/lib/libxenon.a(xenon_gpio.o)
                0x0000000080013b10                xenon_gpio_set
 .text          0x0000000080013b54       0x3c /usr/local/xenon/usr/lib/libxenon.a(cpusleep.o)
                0x0000000080013b54                cpusleep
 .text.lwip_init
                0x0000000080013b90       0x30 /usr/local/xenon/usr/lib/libxenon.a(init.o)
                0x0000000080013b90                lwip_init
 .text.mem_init
                0x0000000080013bc0       0x5c /usr/local/xenon/usr/lib/libxenon.a(mem.o)
                0x0000000080013bc0                mem_init
 .text.mem_free
                0x0000000080013c1c      0x204 /usr/local/xenon/usr/lib/libxenon.a(mem.o)
                0x0000000080013c1c                mem_free
 .text.mem_trim
                0x0000000080013e20      0x180 /usr/local/xenon/usr/lib/libxenon.a(mem.o)
                0x0000000080013e20                mem_trim
 .text.mem_malloc
                0x0000000080013fa0      0x240 /usr/local/xenon/usr/lib/libxenon.a(mem.o)
                0x0000000080013fa0                mem_malloc
 .text.dns_parse_name
                0x00000000800141e0       0x28 /usr/local/xenon/usr/lib/libxenon.a(dns.o)
 .text.dns_recv
                0x0000000080014208      0x1f4 /usr/local/xenon/usr/lib/libxenon.a(dns.o)
 .text.dns_setserver
                0x00000000800143fc       0x40 /usr/local/xenon/usr/lib/libxenon.a(dns.o)
                0x00000000800143fc                dns_setserver
 .text.dns_init
                0x000000008001443c       0x94 /usr/local/xenon/usr/lib/libxenon.a(dns.o)
                0x000000008001443c                dns_init
 .text.memp_init
                0x00000000800144d0       0xb4 /usr/local/xenon/usr/lib/libxenon.a(memp.o)
                0x00000000800144d0                memp_init
 .text.memp_malloc
                0x0000000080014584       0xdc /usr/local/xenon/usr/lib/libxenon.a(memp.o)
                0x0000000080014584                memp_malloc
 .text.memp_free
                0x0000000080014660       0x88 /usr/local/xenon/usr/lib/libxenon.a(memp.o)
                0x0000000080014660                memp_free
 .text.netif_init
                0x00000000800146e8        0x4 /usr/local/xenon/usr/lib/libxenon.a(netif.o)
                0x00000000800146e8                netif_init
 .text.netif_set_ipaddr
                0x00000000800146ec       0xa4 /usr/local/xenon/usr/lib/libxenon.a(netif.o)
                0x00000000800146ec                netif_set_ipaddr
 .text.netif_set_addr
                0x0000000080014790       0x54 /usr/local/xenon/usr/lib/libxenon.a(netif.o)
                0x0000000080014790                netif_set_addr
 .text.netif_add
                0x00000000800147e4       0xb8 /usr/local/xenon/usr/lib/libxenon.a(netif.o)
                0x00000000800147e4                netif_add
 .text.netif_set_gw
                0x000000008001489c       0x18 /usr/local/xenon/usr/lib/libxenon.a(netif.o)
                0x000000008001489c                netif_set_gw
 .text.netif_set_netmask
                0x00000000800148b4       0x18 /usr/local/xenon/usr/lib/libxenon.a(netif.o)
                0x00000000800148b4                netif_set_netmask
 .text.netif_set_default
                0x00000000800148cc        0xc /usr/local/xenon/usr/lib/libxenon.a(netif.o)
                0x00000000800148cc                netif_set_default
 .text.netif_set_up
                0x00000000800148d8       0x68 /usr/local/xenon/usr/lib/libxenon.a(netif.o)
                0x00000000800148d8                netif_set_up
 .text.netif_set_down
                0x0000000080014940       0x48 /usr/local/xenon/usr/lib/libxenon.a(netif.o)
                0x0000000080014940                netif_set_down
 .text.pbuf_alloced_custom
                0x0000000080014988       0xe0 /usr/local/xenon/usr/lib/libxenon.a(pbuf.o)
                0x0000000080014988                pbuf_alloced_custom
 .text.pbuf_header
                0x0000000080014a68      0x134 /usr/local/xenon/usr/lib/libxenon.a(pbuf.o)
                0x0000000080014a68                pbuf_header
 .text.pbuf_free
                0x0000000080014b9c      0x150 /usr/local/xenon/usr/lib/libxenon.a(pbuf.o)
                0x0000000080014b9c                pbuf_free
 .text.pbuf_realloc
                0x0000000080014cec      0x190 /usr/local/xenon/usr/lib/libxenon.a(pbuf.o)
                0x0000000080014cec                pbuf_realloc
 .text.pbuf_alloc
                0x0000000080014e7c      0x2f0 /usr/local/xenon/usr/lib/libxenon.a(pbuf.o)
                0x0000000080014e7c                pbuf_alloc
 .text.pbuf_clen
                0x000000008001516c       0x24 /usr/local/xenon/usr/lib/libxenon.a(pbuf.o)
                0x000000008001516c                pbuf_clen
 .text.pbuf_ref
                0x0000000080015190       0x18 /usr/local/xenon/usr/lib/libxenon.a(pbuf.o)
                0x0000000080015190                pbuf_ref
 .text.pbuf_cat
                0x00000000800151a8       0xac /usr/local/xenon/usr/lib/libxenon.a(pbuf.o)
                0x00000000800151a8                pbuf_cat
 .text.pbuf_chain
                0x0000000080015254       0x34 /usr/local/xenon/usr/lib/libxenon.a(pbuf.o)
                0x0000000080015254                pbuf_chain
 .text.pbuf_copy
                0x0000000080015288      0x1e0 /usr/local/xenon/usr/lib/libxenon.a(pbuf.o)
                0x0000000080015288                pbuf_copy
 .text.pbuf_copy_partial
                0x0000000080015468      0x100 /usr/local/xenon/usr/lib/libxenon.a(pbuf.o)
                0x0000000080015468                pbuf_copy_partial
 .text.stats_init
                0x0000000080015568        0x4 /usr/local/xenon/usr/lib/libxenon.a(stats.o)
                0x0000000080015568                stats_init
 .text.tcp_update_rcv_ann_wnd
                0x000000008001556c       0x9c /usr/local/xenon/usr/lib/libxenon.a(tcp.o)
                0x000000008001556c                tcp_update_rcv_ann_wnd
 .text.tcp_recved
                0x0000000080015608       0x98 /usr/local/xenon/usr/lib/libxenon.a(tcp.o)
                0x0000000080015608                tcp_recved
 .text.tcp_seg_free
                0x00000000800156a0       0x40 /usr/local/xenon/usr/lib/libxenon.a(tcp.o)
                0x00000000800156a0                tcp_seg_free
 .text.tcp_segs_free
                0x00000000800156e0       0x34 /usr/local/xenon/usr/lib/libxenon.a(tcp.o)
                0x00000000800156e0                tcp_segs_free
 .text.tcp_seg_copy
                0x0000000080015714       0x44 /usr/local/xenon/usr/lib/libxenon.a(tcp.o)
                0x0000000080015714                tcp_seg_copy
 .text.tcp_pcb_purge
                0x0000000080015758       0x88 /usr/local/xenon/usr/lib/libxenon.a(tcp.o)
                0x0000000080015758                tcp_pcb_purge
 .text.tcp_slowtmr
                0x00000000800157e0      0x560 /usr/local/xenon/usr/lib/libxenon.a(tcp.o)
                0x00000000800157e0                tcp_slowtmr
 .text.tcp_pcb_remove
                0x0000000080015d40      0x154 /usr/local/xenon/usr/lib/libxenon.a(tcp.o)
                0x0000000080015d40                tcp_pcb_remove
 .text.tcp_abandon
                0x0000000080015e94      0x128 /usr/local/xenon/usr/lib/libxenon.a(tcp.o)
                0x0000000080015e94                tcp_abandon
 .text.tcp_abort
                0x0000000080015fbc        0x8 /usr/local/xenon/usr/lib/libxenon.a(tcp.o)
                0x0000000080015fbc                tcp_abort
 .text.tcp_close_shutdown
                0x0000000080015fc4      0x248 /usr/local/xenon/usr/lib/libxenon.a(tcp.o)
 .text.tcp_close
                0x000000008001620c       0x20 /usr/local/xenon/usr/lib/libxenon.a(tcp.o)
                0x000000008001620c                tcp_close
 .text.tcp_recv_null
                0x000000008001622c       0x60 /usr/local/xenon/usr/lib/libxenon.a(tcp.o)
                0x000000008001622c                tcp_recv_null
 .text.tcp_fasttmr
                0x000000008001628c       0xbc /usr/local/xenon/usr/lib/libxenon.a(tcp.o)
                0x000000008001628c                tcp_fasttmr
 .text.tcp_tmr  0x0000000080016348       0x50 /usr/local/xenon/usr/lib/libxenon.a(tcp.o)
                0x0000000080016348                tcp_tmr
 .text.tcp_next_iss
                0x0000000080016398       0x1c /usr/local/xenon/usr/lib/libxenon.a(tcp.o)
                0x0000000080016398                tcp_next_iss
 .text.tcp_alloc
                0x00000000800163b4      0x1c4 /usr/local/xenon/usr/lib/libxenon.a(tcp.o)
                0x00000000800163b4                tcp_alloc
 .text.tcp_eff_send_mss
                0x0000000080016578       0x5c /usr/local/xenon/usr/lib/libxenon.a(tcp.o)
                0x0000000080016578                tcp_eff_send_mss
 .text.ip4_addr_isbroadcast
                0x00000000800165d4       0x64 /usr/local/xenon/usr/lib/libxenon.a(ip_addr.o)
                0x00000000800165d4                ip4_addr_isbroadcast
 .text.ipaddr_aton
                0x0000000080016638      0x22c /usr/local/xenon/usr/lib/libxenon.a(ip_addr.o)
                0x0000000080016638                ipaddr_aton
 .text.ipaddr_addr
                0x0000000080016864       0x38 /usr/local/xenon/usr/lib/libxenon.a(ip_addr.o)
                0x0000000080016864                ipaddr_addr
 .text.ip_route
                0x000000008001689c       0x88 /usr/local/xenon/usr/lib/libxenon.a(ip.o)
                0x000000008001689c                ip_route
 .text.ip_input
                0x0000000080016924      0x31c /usr/local/xenon/usr/lib/libxenon.a(ip.o)
                0x0000000080016924                ip_input
 .text.ip_output_if
                0x0000000080016c40      0x1e0 /usr/local/xenon/usr/lib/libxenon.a(ip.o)
                0x0000000080016c40                ip_output_if
 .text.ip_output
                0x0000000080016e20       0xb4 /usr/local/xenon/usr/lib/libxenon.a(ip.o)
                0x0000000080016e20                ip_output
 .text.ipfrag_free_pbuf_custom
                0x0000000080016ed4       0x60 /usr/local/xenon/usr/lib/libxenon.a(ip_frag.o)
 .text.unlikely.ip_reass_dequeue_datagram.part.2
                0x0000000080016f34       0x2c /usr/local/xenon/usr/lib/libxenon.a(ip_frag.o)
 .text.ip_reass_free_complete_datagram
                0x0000000080016f60      0x1a8 /usr/local/xenon/usr/lib/libxenon.a(ip_frag.o)
 .text.ip_reass_remove_oldest_datagram
                0x0000000080017108       0xd0 /usr/local/xenon/usr/lib/libxenon.a(ip_frag.o)
 .text.ip_reass
                0x00000000800171d8      0x51c /usr/local/xenon/usr/lib/libxenon.a(ip_frag.o)
                0x00000000800171d8                ip_reass
 .text.ip_frag  0x00000000800176f4      0x228 /usr/local/xenon/usr/lib/libxenon.a(ip_frag.o)
                0x00000000800176f4                ip_frag
 .text.tcp_create_segment
                0x000000008001791c      0x104 /usr/local/xenon/usr/lib/libxenon.a(tcp_out.o)
 .text.tcp_output_alloc_header.constprop.1
                0x0000000080017a20       0xb0 /usr/local/xenon/usr/lib/libxenon.a(tcp_out.o)
 .text.tcp_enqueue_flags
                0x0000000080017ad0      0x268 /usr/local/xenon/usr/lib/libxenon.a(tcp_out.o)
                0x0000000080017ad0                tcp_enqueue_flags
 .text.tcp_send_fin
                0x0000000080017d38       0x4c /usr/local/xenon/usr/lib/libxenon.a(tcp_out.o)
                0x0000000080017d38                tcp_send_fin
 .text.tcp_send_empty_ack
                0x0000000080017d84       0x90 /usr/local/xenon/usr/lib/libxenon.a(tcp_out.o)
                0x0000000080017d84                tcp_send_empty_ack
 .text.tcp_output
                0x0000000080017e14      0x41c /usr/local/xenon/usr/lib/libxenon.a(tcp_out.o)
                0x0000000080017e14                tcp_output
 .text.tcp_rst  0x0000000080018230       0xf8 /usr/local/xenon/usr/lib/libxenon.a(tcp_out.o)
                0x0000000080018230                tcp_rst
 .text.tcp_rexmit_rto
                0x0000000080018328       0x48 /usr/local/xenon/usr/lib/libxenon.a(tcp_out.o)
                0x0000000080018328                tcp_rexmit_rto
 .text.tcp_rexmit
                0x0000000080018370       0x64 /usr/local/xenon/usr/lib/libxenon.a(tcp_out.o)
                0x0000000080018370                tcp_rexmit
 .text.tcp_rexmit_fast
                0x00000000800183d4       0x98 /usr/local/xenon/usr/lib/libxenon.a(tcp_out.o)
                0x00000000800183d4                tcp_rexmit_fast
 .text.tcp_keepalive
                0x000000008001846c       0x90 /usr/local/xenon/usr/lib/libxenon.a(tcp_out.o)
                0x000000008001846c                tcp_keepalive
 .text.tcp_zero_window_probe
                0x00000000800184fc      0x11c /usr/local/xenon/usr/lib/libxenon.a(tcp_out.o)
                0x00000000800184fc                tcp_zero_window_probe
 .text.udp_input
                0x0000000080018618      0x340 /usr/local/xenon/usr/lib/libxenon.a(udp.o)
                0x0000000080018618                udp_input
 .text.udp_bind
                0x0000000080018958      0x138 /usr/local/xenon/usr/lib/libxenon.a(udp.o)
                0x0000000080018958                udp_bind
 .text.udp_sendto_if
                0x0000000080018a90      0x1a4 /usr/local/xenon/usr/lib/libxenon.a(udp.o)
                0x0000000080018a90                udp_sendto_if
 .text.udp_connect
                0x0000000080018c34       0xa0 /usr/local/xenon/usr/lib/libxenon.a(udp.o)
                0x0000000080018c34                udp_connect
 .text.udp_recv
                0x0000000080018cd4        0xc /usr/local/xenon/usr/lib/libxenon.a(udp.o)
                0x0000000080018cd4                udp_recv
 .text.udp_remove
                0x0000000080018ce0       0x6c /usr/local/xenon/usr/lib/libxenon.a(udp.o)
                0x0000000080018ce0                udp_remove
 .text.udp_new  0x0000000080018d4c       0x44 /usr/local/xenon/usr/lib/libxenon.a(udp.o)
                0x0000000080018d4c                udp_new
 .text.etharp_send_ip
                0x0000000080018d90       0x80 /usr/local/xenon/usr/lib/libxenon.a(etharp.o)
 .text.free_entry
                0x0000000080018e10       0xd8 /usr/local/xenon/usr/lib/libxenon.a(etharp.o)
 .text.find_entry
                0x0000000080018ee8      0x230 /usr/local/xenon/usr/lib/libxenon.a(etharp.o)
 .text.update_arp_entry
                0x0000000080019118      0x124 /usr/local/xenon/usr/lib/libxenon.a(etharp.o)
 .text.etharp_ip_input
                0x000000008001923c       0x78 /usr/local/xenon/usr/lib/libxenon.a(etharp.o)
                0x000000008001923c                etharp_ip_input
 .text.etharp_arp_input
                0x00000000800192b4      0x218 /usr/local/xenon/usr/lib/libxenon.a(etharp.o)
                0x00000000800192b4                etharp_arp_input
 .text.etharp_request
                0x00000000800194cc      0x174 /usr/local/xenon/usr/lib/libxenon.a(etharp.o)
                0x00000000800194cc                etharp_request
 .text.etharp_query
                0x0000000080019640      0x2ac /usr/local/xenon/usr/lib/libxenon.a(etharp.o)
                0x0000000080019640                etharp_query
 .text.etharp_output
                0x00000000800198ec      0x17c /usr/local/xenon/usr/lib/libxenon.a(etharp.o)
                0x00000000800198ec                etharp_output
 .text.dhcp_set_state
                0x0000000080019a68       0x24 /usr/local/xenon/usr/lib/libxenon.a(dhcp.o)
 .text.dhcp_option_trailer
                0x0000000080019a8c      0x104 /usr/local/xenon/usr/lib/libxenon.a(dhcp.o)
 .text.dhcp_check
                0x0000000080019b90       0x54 /usr/local/xenon/usr/lib/libxenon.a(dhcp.o)
 .text.dhcp_bind
                0x0000000080019be4      0x190 /usr/local/xenon/usr/lib/libxenon.a(dhcp.o)
 .text.dhcp_option
                0x0000000080019d74       0x74 /usr/local/xenon/usr/lib/libxenon.a(dhcp.o)
 .text.dhcp_option_byte
                0x0000000080019de8       0x5c /usr/local/xenon/usr/lib/libxenon.a(dhcp.o)
 .text.dhcp_option_short
                0x0000000080019e44       0x74 /usr/local/xenon/usr/lib/libxenon.a(dhcp.o)
 .text.dhcp_option_long
                0x0000000080019eb8       0xa4 /usr/local/xenon/usr/lib/libxenon.a(dhcp.o)
 .text.dhcp_create_msg
                0x0000000080019f5c      0x2b0 /usr/local/xenon/usr/lib/libxenon.a(dhcp.o)
 .text.dhcp_delete_msg
                0x000000008001a20c       0xac /usr/local/xenon/usr/lib/libxenon.a(dhcp.o)
 .text.dhcp_reboot
                0x000000008001a2b8       0xf8 /usr/local/xenon/usr/lib/libxenon.a(dhcp.o)
 .text.dhcp_discover
                0x000000008001a3b0      0x144 /usr/local/xenon/usr/lib/libxenon.a(dhcp.o)
 .text.dhcp_select
                0x000000008001a4f4      0x1d4 /usr/local/xenon/usr/lib/libxenon.a(dhcp.o)
 .text.dhcp_rebind
                0x000000008001a6c8      0x148 /usr/local/xenon/usr/lib/libxenon.a(dhcp.o)
 .text.dhcp_recv
                0x000000008001a810      0x8ac /usr/local/xenon/usr/lib/libxenon.a(dhcp.o)
 .text.dhcp_arp_reply
                0x000000008001b0bc      0x100 /usr/local/xenon/usr/lib/libxenon.a(dhcp.o)
                0x000000008001b0bc                dhcp_arp_reply
 .text.dhcp_renew
                0x000000008001b1bc      0x144 /usr/local/xenon/usr/lib/libxenon.a(dhcp.o)
                0x000000008001b1bc                dhcp_renew
 .text.dhcp_coarse_tmr
                0x000000008001b300       0xb4 /usr/local/xenon/usr/lib/libxenon.a(dhcp.o)
                0x000000008001b300                dhcp_coarse_tmr
 .text.dhcp_release
                0x000000008001b3b4      0x114 /usr/local/xenon/usr/lib/libxenon.a(dhcp.o)
                0x000000008001b3b4                dhcp_release
 .text.dhcp_fine_tmr
                0x000000008001b4c8      0x128 /usr/local/xenon/usr/lib/libxenon.a(dhcp.o)
                0x000000008001b4c8                dhcp_fine_tmr
 .text.dhcp_stop
                0x000000008001b5f0       0xc0 /usr/local/xenon/usr/lib/libxenon.a(dhcp.o)
                0x000000008001b5f0                dhcp_stop
 .text.dhcp_start
                0x000000008001b6b0      0x1a0 /usr/local/xenon/usr/lib/libxenon.a(dhcp.o)
                0x000000008001b6b0                dhcp_start
 .text.raw_input
                0x000000008001b850       0xe8 /usr/local/xenon/usr/lib/libxenon.a(raw.o)
                0x000000008001b850                raw_input
 .text.tcp_timer_needed
                0x000000008001b938        0x4 /usr/local/xenon/usr/lib/libxenon.a(timers.o)
                0x000000008001b938                tcp_timer_needed
 .text.q_enqueue
                0x000000008001b93c       0x18 /usr/local/xenon/usr/lib/libxenon.a(lib_queue.o)
                0x000000008001b93c                q_enqueue
 .text.q_deqnext
                0x000000008001b954       0x30 /usr/local/xenon/usr/lib/libxenon.a(lib_queue.o)
                0x000000008001b954                q_deqnext
 .text.unlikely.tcp_oos_insert_segment
                0x000000008001b984       0xd0 /usr/local/xenon/usr/lib/libxenon.a(tcp_in.o)
 .text.unlikely.tcp_receive
                0x000000008001ba54      0xde4 /usr/local/xenon/usr/lib/libxenon.a(tcp_in.o)
 .text.tcp_parseopt.isra.0
                0x000000008001c838       0xc0 /usr/local/xenon/usr/lib/libxenon.a(tcp_in.o)
 .text.tcp_input
                0x000000008001c8f8      0xe60 /usr/local/xenon/usr/lib/libxenon.a(tcp_in.o)
                0x000000008001c8f8                tcp_input
 .text.lwip_standard_chksum
                0x000000008001d758       0xb0 /usr/local/xenon/usr/lib/libxenon.a(inet_chksum.o)
 .text.inet_chksum_pseudo
                0x000000008001d808       0xec /usr/local/xenon/usr/lib/libxenon.a(inet_chksum.o)
                0x000000008001d808                inet_chksum_pseudo
 .text.inet_chksum
                0x000000008001d8f4       0x28 /usr/local/xenon/usr/lib/libxenon.a(inet_chksum.o)
                0x000000008001d8f4                inet_chksum
 .text.inet_chksum_pbuf
                0x000000008001d91c       0x94 /usr/local/xenon/usr/lib/libxenon.a(inet_chksum.o)
                0x000000008001d91c                inet_chksum_pbuf
 .text.icmp_send_response.isra.0
                0x000000008001d9b0       0xf0 /usr/local/xenon/usr/lib/libxenon.a(icmp.o)
 .text.icmp_input
                0x000000008001daa0      0x368 /usr/local/xenon/usr/lib/libxenon.a(icmp.o)
                0x000000008001daa0                icmp_input
 .text.icmp_dest_unreach
                0x000000008001de08       0x10 /usr/local/xenon/usr/lib/libxenon.a(icmp.o)
                0x000000008001de08                icmp_dest_unreach
 .text.icmp_time_exceeded
                0x000000008001de18       0x10 /usr/local/xenon/usr/lib/libxenon.a(icmp.o)
                0x000000008001de18                icmp_time_exceeded
 .text          0x000000008001de28       0x4c /usr/local/xenon/lib/gcc/xenon/4.6.1/32/libgcc.a(crtsavgpr.o)
                0x000000008001de28                _savegpr_14
                0x000000008001de2c                _savegpr_15
                0x000000008001de30                _savegpr_16
                0x000000008001de34                _savegpr_17
                0x000000008001de38                _savegpr_18
                0x000000008001de3c                _savegpr_19
                0x000000008001de40                _savegpr_20
                0x000000008001de44                _savegpr_21
                0x000000008001de48                _savegpr_22
                0x000000008001de4c                _savegpr_23
                0x000000008001de50                _savegpr_24
                0x000000008001de54                _savegpr_25
                0x000000008001de58                _savegpr_26
                0x000000008001de5c                _savegpr_27
                0x000000008001de60                _savegpr_28
                0x000000008001de64                _savegpr_29
                0x000000008001de68                _savegpr_30
                0x000000008001de6c                _savegpr_31
 .text          0x000000008001de74       0x58 /usr/local/xenon/lib/gcc/xenon/4.6.1/32/libgcc.a(crtresxgpr.o)
                0x000000008001de74                _restgpr_14_x
                0x000000008001de78                _restgpr_15_x
                0x000000008001de7c                _restgpr_16_x
                0x000000008001de80                _restgpr_17_x
                0x000000008001de84                _restgpr_18_x
                0x000000008001de88                _restgpr_19_x
                0x000000008001de8c                _restgpr_20_x
                0x000000008001de90                _restgpr_21_x
                0x000000008001de94                _restgpr_22_x
                0x000000008001de98                _restgpr_23_x
                0x000000008001de9c                _restgpr_24_x
                0x000000008001dea0                _restgpr_25_x
                0x000000008001dea4                _restgpr_26_x
                0x000000008001dea8                _restgpr_27_x
                0x000000008001deac                _restgpr_28_x
                0x000000008001deb0                _restgpr_29_x
                0x000000008001deb4                _restgpr_30_x
                0x000000008001deb8                _restgpr_31_x
 *fill*         0x000000008001decc        0x4 00
 .text          0x000000008001ded0     0x1ae0 /usr/local/xenon/lib/gcc/xenon/4.6.1/32/libgcc.a(unwind-dw2-fde-glibc.o)
                0x000000008001f44c                __register_frame_info_bases
                0x000000008001f4c0                __register_frame_info
                0x000000008001f4e8                __register_frame
                0x000000008001f534                __register_frame_info_table_bases
                0x000000008001f598                __register_frame_info_table
                0x000000008001f5c0                __register_frame_table
                0x000000008001f604                __deregister_frame_info_bases
                0x000000008001f750                __deregister_frame_info
                0x000000008001f770                __deregister_frame
                0x000000008001f7a4                _Unwind_Find_FDE
 .text          0x000000008001f9b0       0x88 /usr/local/xenon/xenon/lib/32/libc.a(lib_a-assert.o)
                0x000000008001f9b4                __assert_func
                0x000000008001fa20                __assert
 .text          0x000000008001fa38       0x58 /usr/local/xenon/xenon/lib/32/libc.a(lib_a-exit.o)
                0x000000008001fa3c                exit
 .text          0x000000008001fa90      0x1c0 /usr/local/xenon/xenon/lib/32/libc.a(lib_a-fclose.o)
                0x000000008001fa90                _fclose_r
                0x000000008001fc0c                fclose
 .text          0x000000008001fc50      0x334 /usr/local/xenon/xenon/lib/32/libc.a(lib_a-fflush.o)
                0x000000008001fc50                _fflush_r
                0x000000008001ff14                fflush
 *fill*         0x000000008001ff84        0x4 00
 .text          0x000000008001ff88      0x48c /usr/local/xenon/xenon/lib/32/libc.a(lib_a-findfp.o)
                0x000000008001ff9c                _cleanup_r
                0x0000000080020078                __sfmoreglue
                0x00000000800200fc                _cleanup
                0x0000000080020140                __sfp_lock_acquire
                0x0000000080020148                __sfp_lock_release
                0x0000000080020150                __sinit_lock_acquire
                0x0000000080020158                __sinit_lock_release
                0x0000000080020164                __sinit
                0x0000000080020214                __sfp
                0x000000008002037c                __fp_lock_all
                0x00000000800203cc                __fp_unlock_all
 *fill*         0x0000000080020414        0x4 00
 .text          0x0000000080020418      0x130 /usr/local/xenon/xenon/lib/32/libc.a(lib_a-fiprintf.o)
                0x0000000080020418                _fiprintf_r
                0x000000008002049c                fiprintf
 .text          0x0000000080020548      0x418 /usr/local/xenon/xenon/lib/32/libc.a(lib_a-freer.o)
                0x000000008002054c                _malloc_trim_r
                0x00000000800206a4                _free_r
 .text          0x0000000080020960       0x9c /usr/local/xenon/xenon/lib/32/libc.a(lib_a-fstatr.o)
                0x0000000080020964                _fstat_r
 *fill*         0x00000000800209fc        0x4 00
 .text          0x0000000080020a00      0x19c /usr/local/xenon/xenon/lib/32/libc.a(lib_a-fwalk.o)
                0x0000000080020a00                _fwalk
                0x0000000080020ac8                _fwalk_reent
 *fill*         0x0000000080020b9c        0x4 00
 .text          0x0000000080020ba0      0x220 /usr/local/xenon/xenon/lib/32/libc.a(lib_a-makebuf.o)
                0x0000000080020ba4                __smakebuf_r
 .text          0x0000000080020dc0       0x4c /usr/local/xenon/xenon/lib/32/libc.a(lib_a-malign.o)
                0x0000000080020dc4                memalign
 *fill*         0x0000000080020e0c        0x4 00
 .text          0x0000000080020e10      0x21c /usr/local/xenon/xenon/lib/32/libc.a(lib_a-malignr.o)
                0x0000000080020e10                _memalign_r
 *fill*         0x000000008002102c        0x4 00
 .text          0x0000000080021030       0x90 /usr/local/xenon/xenon/lib/32/libc.a(lib_a-malloc.o)
                0x0000000080021034                malloc
                0x000000008002107c                free
 .text          0x00000000800210c0      0x890 /usr/local/xenon/xenon/lib/32/libc.a(lib_a-mallocr.o)
                0x00000000800210c4                _malloc_r
 .text          0x0000000080021950       0xe0 /usr/local/xenon/xenon/lib/32/libc.a(lib_a-memcmp.o)
                0x0000000080021950                memcmp
 .text          0x0000000080021a30      0x128 /usr/local/xenon/xenon/lib/32/libc.a(lib_a-memcpy.o)
                0x0000000080021a30                memcpy
 .text          0x0000000080021b58      0x134 /usr/local/xenon/xenon/lib/32/libc.a(lib_a-memset.o)
                0x0000000080021b58                memset
 *fill*         0x0000000080021c8c        0x4 00
 .text          0x0000000080021c90      0x138 /usr/local/xenon/xenon/lib/32/libc.a(lib_a-printf.o)
                0x0000000080021c90                _printf_r
                0x0000000080021d1c                printf
 .text          0x0000000080021dc8       0x74 /usr/local/xenon/xenon/lib/32/libc.a(lib_a-putchar.o)
                0x0000000080021dc8                _putchar_r
                0x0000000080021df4                putchar
 *fill*         0x0000000080021e3c        0x4 00
 .text          0x0000000080021e40      0x204 /usr/local/xenon/xenon/lib/32/libc.a(lib_a-putc.o)
                0x0000000080021e40                _putc_r
                0x0000000080021f24                putc
 *fill*         0x0000000080022044        0x4 00
 .text          0x0000000080022048      0x128 /usr/local/xenon/xenon/lib/32/libc.a(lib_a-puts.o)
                0x000000008002204c                _puts_r
                0x000000008002212c                puts
 .text          0x0000000080022170       0x94 /usr/local/xenon/xenon/lib/32/libc.a(lib_a-sbrkr.o)
                0x0000000080022174                _sbrk_r
 *fill*         0x0000000080022204        0x4 00
 .text          0x0000000080022208      0x1a8 /usr/local/xenon/xenon/lib/32/libc.a(lib_a-sprintf.o)
                0x0000000080022208                _sprintf_r
                0x00000000800222cc                sprintf
 .text          0x00000000800223b0      0x1a8 /usr/local/xenon/xenon/lib/32/libc.a(lib_a-stdio.o)
                0x00000000800223b0                __sread
                0x0000000080022418                __swrite
                0x00000000800224c0                __sseek
                0x0000000080022530                __sclose
 .text          0x0000000080022558       0xb0 /usr/local/xenon/xenon/lib/32/libc.a(lib_a-strcat.o)
                0x0000000080022558                strcat
 .text          0x0000000080022608      0x10c /usr/local/xenon/xenon/lib/32/libc.a(lib_a-strcmp.o)
                0x0000000080022608                strcmp
 *fill*         0x0000000080022714        0x4 00
 .text          0x0000000080022718       0xa4 /usr/local/xenon/xenon/lib/32/libc.a(lib_a-strcpy.o)
                0x0000000080022718                strcpy
 *fill*         0x00000000800227bc        0x4 00
 .text          0x00000000800227c0      0x100 /usr/local/xenon/xenon/lib/32/libc.a(lib_a-strlen.o)
                0x00000000800227c0                strlen
 .text          0x00000000800228c0       0xec /usr/local/xenon/xenon/lib/32/libc.a(lib_a-strncpy.o)
                0x00000000800228c0                strncpy
 *fill*         0x00000000800229ac        0x4 00
 .text          0x00000000800229b0     0x2318 /usr/local/xenon/xenon/lib/32/libc.a(lib_a-svfprintf.o)
                0x0000000080022c94                _svfprintf_r
 .text          0x0000000080024cc8     0x153c /usr/local/xenon/xenon/lib/32/libc.a(lib_a-vfiprintf.o)
                0x0000000080024d34                _vfiprintf_r
                0x00000000800261b4                vfiprintf
 *fill*         0x0000000080026204        0x4 00
 .text          0x0000000080026208     0x21e4 /usr/local/xenon/xenon/lib/32/libc.a(lib_a-vfprintf.o)
                0x0000000080026274                _vfprintf_r
                0x000000008002839c                vfprintf
 *fill*         0x00000000800283ec        0x4 00
 .text          0x00000000800283f0       0x80 /usr/local/xenon/xenon/lib/32/libc.a(lib_a-vprintf.o)
                0x00000000800283f4                vprintf
                0x0000000080028440                _vprintf_r
 .text          0x0000000080028470      0x21c /usr/local/xenon/xenon/lib/32/libc.a(lib_a-wbuf.o)
                0x0000000080028470                __swbuf_r
                0x0000000080028644                __swbuf
 *fill*         0x000000008002868c        0x4 00
 .text          0x0000000080028690       0x9c /usr/local/xenon/xenon/lib/32/libc.a(lib_a-writer.o)
                0x0000000080028694                _write_r
 *fill*         0x000000008002872c        0x4 00
 .text          0x0000000080028730      0x1b0 /usr/local/xenon/xenon/lib/32/libc.a(lib_a-wsetup.o)
                0x0000000080028734                __swsetup_r
 .text          0x00000000800288e0      0x1f8 /usr/local/xenon/xenon/lib/32/libc.a(lib_a-__call_atexit.o)
                0x00000000800288e4                __call_exitprocs
 .text          0x0000000080028ad8       0x94 /usr/local/xenon/xenon/lib/32/libc.a(lib_a-closer.o)
                0x0000000080028adc                _close_r
 *fill*         0x0000000080028b6c        0x4 00
 .text          0x0000000080028b70     0x14dc /usr/local/xenon/xenon/lib/32/libc.a(lib_a-dtoa.o)
                0x0000000080028dc4                _dtoa_r
 *fill*         0x000000008002a04c        0x4 00
 .text          0x000000008002a050      0x57c /usr/local/xenon/xenon/lib/32/libc.a(lib_a-fvwrite.o)
                0x000000008002a050                __sfvwrite_r
 *fill*         0x000000008002a5cc        0x4 00
 .text          0x000000008002a5d0       0x94 /usr/local/xenon/xenon/lib/32/libc.a(lib_a-isattyr.o)
                0x000000008002a5d4                _isatty_r
 *fill*         0x000000008002a664        0x4 00
 .text          0x000000008002a668      0x1cc /usr/local/xenon/xenon/lib/32/libc.a(lib_a-locale.o)
                0x000000008002a66c                _setlocale_r
                0x000000008002a724                __locale_charset
                0x000000008002a764                _localeconv_r
                0x000000008002a7a4                setlocale
                0x000000008002a7f4                localeconv
 *fill*         0x000000008002a834        0x4 00
 .text          0x000000008002a838       0x9c /usr/local/xenon/xenon/lib/32/libc.a(lib_a-lseekr.o)
                0x000000008002a83c                _lseek_r
 *fill*         0x000000008002a8d4        0x4 00
 .text          0x000000008002a8d8      0x130 /usr/local/xenon/xenon/lib/32/libc.a(lib_a-memchr.o)
                0x000000008002a8d8                memchr
 .text          0x000000008002aa08      0x198 /usr/local/xenon/xenon/lib/32/libc.a(lib_a-memmove.o)
                0x000000008002aa08                memmove
 .text          0x000000008002aba0     0x1308 /usr/local/xenon/xenon/lib/32/libc.a(lib_a-mprec.o)
                0x000000008002aba0                _Balloc
                0x000000008002ac68                _Bfree
                0x000000008002ac90                __multadd
                0x000000008002adb8                __s2b
                0x000000008002af08                __hi0bits
                0x000000008002af80                __lo0bits
                0x000000008002b060                __i2b
                0x000000008002b0a0                __multiply
                0x000000008002b304                __pow5mult
                0x000000008002b458                __lshift
                0x000000008002b5d8                __mcmp
                0x000000008002b638                __mdiff
                0x000000008002b820                __ulp
                0x000000008002b8b8                __b2d
                0x000000008002ba38                __d2b
                0x000000008002bbd8                __ratio
                0x000000008002bcc4                _mprec_log10
                0x000000008002bd40                __copybits
                0x000000008002bdc8                __any_on
 .text          0x000000008002bea8       0x9c /usr/local/xenon/xenon/lib/32/libc.a(lib_a-readr.o)
                0x000000008002beac                _read_r
 *fill*         0x000000008002bf44        0x4 00
 .text          0x000000008002bf48      0x630 /usr/local/xenon/xenon/lib/32/libc.a(lib_a-reallocr.o)
                0x000000008002bf4c                _realloc_r
 .text          0x000000008002c578       0x44 /usr/local/xenon/xenon/lib/32/libc.a(lib_a-s_isinfd.o)
                0x000000008002c578                __isinfd
 *fill*         0x000000008002c5bc        0x4 00
 .text          0x000000008002c5c0       0x38 /usr/local/xenon/xenon/lib/32/libc.a(lib_a-s_isnand.o)
                0x000000008002c5c0                __isnand
 .text          0x000000008002c5f8       0xc8 /usr/local/xenon/xenon/lib/32/libc.a(lib_a-callocr.o)
                0x000000008002c5f8                _calloc_r
 .text          0x000000008002c6c0      0x434 /usr/local/xenon/lib/gcc/xenon/4.6.1/32/libgcc.a(_udivdi3.o)
                0x000000008002c6c0                __udivdi3
 *fill*         0x000000008002caf4        0x4 00
 .text          0x000000008002caf8      0x3f0 /usr/local/xenon/lib/gcc/xenon/4.6.1/32/libgcc.a(_umoddi3.o)
                0x000000008002caf8                __umoddi3
 *(.init*)

.glink          0x000000008002cee8        0x0
 .glink         0x0000000000000000        0x0 /usr/local/xenon/lib/gcc/xenon/4.6.1/../../../../xenon/lib/../lib/crt1.o

.elfldr         0x000000008002cee8        0x0
                0x000000008002cee8                elfldr_start = .
 *(.elfldr)
                0x000000008002cee8                elfldr_end = .

.data           0x000000008002cee8     0x6f78
 *(.data*)
 .data.devoptab_list
                0x000000008002cee8       0x40 /usr/local/xenon/usr/lib/libxenon.a(newlib.o)
                0x000000008002cee8                devoptab_list
 .data.__syscalls
                0x000000008002cf28       0x24 /usr/local/xenon/usr/lib/libxenon.a(xenon_syscalls.o)
                0x000000008002cf28                __syscalls
 .data.lockowner
                0x000000008002cf4c        0x4 /usr/local/xenon/usr/lib/libxenon.a(xenon_syscalls.o)
 .data.usbctrl_driver
                0x000000008002cf50        0xc /usr/local/xenon/usr/lib/libxenon.a(usbctrl.o)
                0x000000008002cf50                usbctrl_driver
 .data.usb_drivers
                0x000000008002cf5c       0x90 /usr/local/xenon/usr/lib/libxenon.a(usbdevs.o)
                0x000000008002cf5c                usb_drivers
 .data.usbhid_driver
                0x000000008002cfec        0xc /usr/local/xenon/usr/lib/libxenon.a(usbhid.o)
                0x000000008002cfec                usbhid_driver
 .data.usbhid_scantable
                0x000000008002cff8      0x650 /usr/local/xenon/usr/lib/libxenon.a(usbhid.o)
 .data.usbhub_driver
                0x000000008002d648        0xc /usr/local/xenon/usr/lib/libxenon.a(usbhub.o)
                0x000000008002d648                usbhub_driver
 .data.usbroothub_driver
                0x000000008002d654        0xc /usr/local/xenon/usr/lib/libxenon.a(usbhub.o)
                0x000000008002d654                usbroothub_driver
 .data.first_access
                0x000000008002d660        0x4 /usr/local/xenon/usr/lib/libxenon.a(tinyehci.o)
 .data.__lun    0x000000008002d664        0x1 /usr/local/xenon/usr/lib/libxenon.a(tinyehci.o)
 *fill*         0x000000008002d665        0x3 00
 .data.ana_1024x768
                0x000000008002d668      0x400 /usr/local/xenon/usr/lib/libxenon.a(xenos.o)
                0x000000008002d668                ana_1024x768
 .data.ana_ntsc_480i
                0x000000008002da68      0x400 /usr/local/xenon/usr/lib/libxenon.a(xenos.o)
                0x000000008002da68                ana_ntsc_480i
 .data.ana_yuv_480p
                0x000000008002de68      0x400 /usr/local/xenon/usr/lib/libxenon.a(xenos.o)
                0x000000008002de68                ana_yuv_480p
 .data.ana_1280x1024
                0x000000008002e268      0x400 /usr/local/xenon/usr/lib/libxenon.a(xenos.o)
                0x000000008002e268                ana_1280x1024
 .data.ana_pal  0x000000008002e668      0x400 /usr/local/xenon/usr/lib/libxenon.a(xenos.o)
                0x000000008002e668                ana_pal
 .data.ana_1360x768
                0x000000008002ea68      0x400 /usr/local/xenon/usr/lib/libxenon.a(xenos.o)
                0x000000008002ea68                ana_1360x768
 .data.ana_640_480_composite
                0x000000008002ee68      0x400 /usr/local/xenon/usr/lib/libxenon.a(xenos.o)
                0x000000008002ee68                ana_640_480_composite
 .data.ana_1440x900
                0x000000008002f268      0x400 /usr/local/xenon/usr/lib/libxenon.a(xenos.o)
                0x000000008002f268                ana_1440x900
 .data.ana_1280x768
                0x000000008002f668      0x400 /usr/local/xenon/usr/lib/libxenon.a(xenos.o)
                0x000000008002f668                ana_1280x768
 .data.ana_1280x720
                0x000000008002fa68      0x400 /usr/local/xenon/usr/lib/libxenon.a(xenos.o)
                0x000000008002fa68                ana_1280x720
 .data.ana_hdmi_720p
                0x000000008002fe68      0x400 /usr/local/xenon/usr/lib/libxenon.a(xenos.o)
                0x000000008002fe68                ana_hdmi_720p
 .data.xenos_modes
                0x0000000080030268      0x2d8 /usr/local/xenon/usr/lib/libxenon.a(xenos.o)
                0x0000000080030268                xenos_modes
 .data.ana_640x480p
                0x0000000080030540      0x400 /usr/local/xenon/usr/lib/libxenon.a(xenos.o)
                0x0000000080030540                ana_640x480p
 .data.ana_yuv_720p
                0x0000000080030940      0x400 /usr/local/xenon/usr/lib/libxenon.a(xenos.o)
                0x0000000080030940                ana_yuv_720p
 .data.dummy_driver
                0x0000000080030d40        0xc /usr/local/xenon/usr/lib/libxenon.a(dummy.o)
                0x0000000080030d40                dummy_driver
 .data.ohci_driver
                0x0000000080030d4c       0x2c /usr/local/xenon/usr/lib/libxenon.a(ohci.o)
                0x0000000080030d4c                ohci_driver
 .data.xenos_ucode0
                0x0000000080030d78      0x480 /usr/local/xenon/usr/lib/libxenon.a(ucode.o)
                0x0000000080030d78                xenos_ucode0
 .data.xenos_ucode1
                0x00000000800311f8     0x2400 /usr/local/xenon/usr/lib/libxenon.a(ucode.o)
                0x00000000800311f8                xenos_ucode1
 .data.iss.3625
                0x00000000800335f8        0x4 /usr/local/xenon/usr/lib/libxenon.a(tcp.o)
 .data.xid.3562
                0x00000000800335fc        0x4 /usr/local/xenon/usr/lib/libxenon.a(dhcp.o)
 .data.rel.local
                0x0000000080033600      0x428 /usr/local/xenon/xenon/lib/32/libc.a(lib_a-impure.o)
 .data.rel      0x0000000080033a28      0x408 /usr/local/xenon/xenon/lib/32/libc.a(lib_a-mallocr.o)
                0x0000000080033a28                __malloc_av_
 .data.rel.ro.local
                0x0000000080033e30       0x30 /usr/local/xenon/xenon/lib/32/libc.a(lib_a-locale.o)

.got2           0x0000000080033e60      0x1d4
 .got2          0x0000000080033e60       0x14 /usr/local/xenon/lib/gcc/xenon/4.6.1/32/libgcc.a(unwind-dw2-fde-glibc.o)
 .got2          0x0000000080033e74       0x10 /usr/local/xenon/xenon/lib/32/libc.a(lib_a-assert.o)
 .got2          0x0000000080033e84        0x4 /usr/local/xenon/xenon/lib/32/libc.a(lib_a-exit.o)
 .got2          0x0000000080033e88        0x4 /usr/local/xenon/xenon/lib/32/libc.a(lib_a-fclose.o)
 .got2          0x0000000080033e8c        0xc /usr/local/xenon/xenon/lib/32/libc.a(lib_a-fflush.o)
 .got2          0x0000000080033e98       0x28 /usr/local/xenon/xenon/lib/32/libc.a(lib_a-findfp.o)
 .got2          0x0000000080033ec0        0x4 /usr/local/xenon/xenon/lib/32/libc.a(lib_a-fiprintf.o)
 .got2          0x0000000080033ec4       0x18 /usr/local/xenon/xenon/lib/32/libc.a(lib_a-freer.o)
 .got2          0x0000000080033edc        0x4 /usr/local/xenon/xenon/lib/32/libc.a(lib_a-fstatr.o)
 .got2          0x0000000080033ee0        0x8 /usr/local/xenon/xenon/lib/32/libc.a(lib_a-makebuf.o)
 .got2          0x0000000080033ee8        0x4 /usr/local/xenon/xenon/lib/32/libc.a(lib_a-malign.o)
 .got2          0x0000000080033eec        0x4 /usr/local/xenon/xenon/lib/32/libc.a(lib_a-malloc.o)
 .got2          0x0000000080033ef0       0x18 /usr/local/xenon/xenon/lib/32/libc.a(lib_a-mallocr.o)
 .got2          0x0000000080033f08        0x4 /usr/local/xenon/xenon/lib/32/libc.a(lib_a-printf.o)
 .got2          0x0000000080033f0c        0x4 /usr/local/xenon/xenon/lib/32/libc.a(lib_a-putchar.o)
 .got2          0x0000000080033f10        0x4 /usr/local/xenon/xenon/lib/32/libc.a(lib_a-putc.o)
 .got2          0x0000000080033f14        0x8 /usr/local/xenon/xenon/lib/32/libc.a(lib_a-puts.o)
 .got2          0x0000000080033f1c        0x4 /usr/local/xenon/xenon/lib/32/libc.a(lib_a-sbrkr.o)
 .got2          0x0000000080033f20        0x4 /usr/local/xenon/xenon/lib/32/libc.a(lib_a-sprintf.o)
 .got2          0x0000000080033f24       0x30 /usr/local/xenon/xenon/lib/32/libc.a(lib_a-svfprintf.o)
 .got2          0x0000000080033f54       0x1c /usr/local/xenon/xenon/lib/32/libc.a(lib_a-vfiprintf.o)
 .got2          0x0000000080033f70       0x34 /usr/local/xenon/xenon/lib/32/libc.a(lib_a-vfprintf.o)
 .got2          0x0000000080033fa4        0x4 /usr/local/xenon/xenon/lib/32/libc.a(lib_a-vprintf.o)
 .got2          0x0000000080033fa8        0x4 /usr/local/xenon/xenon/lib/32/libc.a(lib_a-wbuf.o)
 .got2          0x0000000080033fac        0x4 /usr/local/xenon/xenon/lib/32/libc.a(lib_a-writer.o)
 .got2          0x0000000080033fb0        0x4 /usr/local/xenon/xenon/lib/32/libc.a(lib_a-wsetup.o)
 .got2          0x0000000080033fb4        0x4 /usr/local/xenon/xenon/lib/32/libc.a(lib_a-__call_atexit.o)
 .got2          0x0000000080033fb8        0x4 /usr/local/xenon/xenon/lib/32/libc.a(lib_a-closer.o)
 .got2          0x0000000080033fbc       0x44 /usr/local/xenon/xenon/lib/32/libc.a(lib_a-dtoa.o)
 .got2          0x0000000080034000        0x4 /usr/local/xenon/xenon/lib/32/libc.a(lib_a-isattyr.o)
 .got2          0x0000000080034004       0x14 /usr/local/xenon/xenon/lib/32/libc.a(lib_a-locale.o)
 .got2          0x0000000080034018        0x4 /usr/local/xenon/xenon/lib/32/libc.a(lib_a-lseekr.o)
 .got2          0x000000008003401c       0x10 /usr/local/xenon/xenon/lib/32/libc.a(lib_a-mprec.o)
 .got2          0x000000008003402c        0x4 /usr/local/xenon/xenon/lib/32/libc.a(lib_a-readr.o)
 .got2          0x0000000080034030        0x4 /usr/local/xenon/xenon/lib/32/libc.a(lib_a-reallocr.o)

.sdata          0x0000000080034038       0x44
 *(.sdata*)
 .sdata         0x0000000080034038        0x4 /usr/local/xenon/usr/lib/libxenon.a(startup_from_xell.o)
                0x0000000080034038                __system_argv
 .sdata.console_color
                0x000000008003403c        0x8 /usr/local/xenon/usr/lib/libxenon.a(console.o)
                0x000000008003403c                console_color
 .sdata.usb_timeout
                0x0000000080034044        0x4 /usr/local/xenon/usr/lib/libxenon.a(tinyehci.o)
                0x0000000080034044                usb_timeout
 .sdata.xenon_smc_last_ir
                0x0000000080034048        0x4 /usr/local/xenon/usr/lib/libxenon.a(xenon_smc.o)
                0x0000000080034048                xenon_smc_last_ir
 *fill*         0x000000008003404c        0x4 00
 .sdata.tcp_persist_backoff
                0x0000000080034050        0x7 /usr/local/xenon/usr/lib/libxenon.a(tcp.o)
                0x0000000080034050                tcp_persist_backoff
 *fill*         0x0000000080034057        0x1 00
 .sdata.ip_addr_any
                0x0000000080034058        0x4 /usr/local/xenon/usr/lib/libxenon.a(ip_addr.o)
                0x0000000080034058                ip_addr_any
 .sdata.ip_addr_broadcast
                0x000000008003405c        0x4 /usr/local/xenon/usr/lib/libxenon.a(ip_addr.o)
                0x000000008003405c                ip_addr_broadcast
 .sdata.ethbroadcast
                0x0000000080034060        0x6 /usr/local/xenon/usr/lib/libxenon.a(etharp.o)
                0x0000000080034060                ethbroadcast
 .sdata.ethzero
                0x0000000080034066        0x6 /usr/local/xenon/usr/lib/libxenon.a(etharp.o)
                0x0000000080034066                ethzero
 .sdata         0x000000008003406c        0x8 /usr/local/xenon/xenon/lib/32/libc.a(lib_a-impure.o)
                0x000000008003406c                _global_impure_ptr
                0x0000000080034070                _impure_ptr
 .sdata         0x0000000080034074        0x8 /usr/local/xenon/xenon/lib/32/libc.a(lib_a-mallocr.o)
                0x0000000080034074                __malloc_sbrk_base
                0x0000000080034078                __malloc_trim_threshold

.rodata         0x0000000080034080     0x4108
 *(.rodata*)
 .rodata.str1.8
                0x0000000080034080       0xd0 dashboard.o
                                         0xcb (size before relaxing)
 .rodata.str1.1
                0x0000000080034150       0x33 /usr/local/xenon/usr/lib/libxenon.a(console.o)
 *fill*         0x0000000080034183        0x5 00
 .rodata.fontdata_8x16
                0x0000000080034188     0x1000 /usr/local/xenon/usr/lib/libxenon.a(console.o)
                0x0000000080034188                fontdata_8x16
 .rodata.console_optab
                0x0000000080035188       0x64 /usr/local/xenon/usr/lib/libxenon.a(newlib.o)
                0x0000000080035188                console_optab
 .rodata.str1.1
                0x00000000800351ec       0x6a /usr/local/xenon/usr/lib/libxenon.a(newlib.o)
 *fill*         0x0000000080035256        0x2 00
 .rodata.dotab_stdnull
                0x0000000080035258       0x64 /usr/local/xenon/usr/lib/libxenon.a(newlib.o)
                0x0000000080035258                dotab_stdnull
 *fill*         0x00000000800352bc        0x4 00
 .rodata.__FUNCTION__.3699
                0x00000000800352c0       0x12 /usr/local/xenon/usr/lib/libxenon.a(xenon_syscalls.o)
 .rodata.str1.1
                0x00000000800352d2       0xcf /usr/local/xenon/usr/lib/libxenon.a(xenon_syscalls.o)
 *fill*         0x00000000800353a1        0x7 00
 .rodata.__FUNCTION__.3707
                0x00000000800353a8       0x14 /usr/local/xenon/usr/lib/libxenon.a(xenon_syscalls.o)
 .rodata.str1.1
                0x00000000800353bc       0xf7 /usr/local/xenon/usr/lib/libxenon.a(c_except.o)
                                         0xfb (size before relaxing)
 .rodata.str1.1
                0x00000000800354b3       0xe4 /usr/local/xenon/usr/lib/libxenon.a(usbctrl.o)
 .rodata.str1.1
                0x0000000080035597      0x100 /usr/local/xenon/usr/lib/libxenon.a(usbd.o)
 .rodata.str1.1
                0x0000000080035697       0x5a /usr/local/xenon/usr/lib/libxenon.a(usbdevs.o)
 .rodata.str1.1
                0x00000000800356f1       0x4a /usr/local/xenon/usr/lib/libxenon.a(usbhid.o)
 *fill*         0x000000008003573b        0x1 00
 .rodata.usbhid_devtypes
                0x000000008003573c        0xc /usr/local/xenon/usr/lib/libxenon.a(usbhid.o)
 .rodata.str1.1
                0x0000000080035748      0x24a /usr/local/xenon/usr/lib/libxenon.a(usbhub.o)
 .rodata.str1.1
                0x0000000080035992       0xcf /usr/local/xenon/usr/lib/libxenon.a(usbmain.o)
 .rodata.str1.1
                0x0000000080035a61       0x9a /usr/local/xenon/usr/lib/libxenon.a(tinyehci.o)
 .rodata.str1.1
                0x0000000080035afb      0x11f /usr/local/xenon/usr/lib/libxenon.a(xenon_smc.o)
 .rodata.str1.1
                0x0000000080035c1a      0x14e /usr/local/xenon/usr/lib/libxenon.a(xenon_power.o)
 .rodata.str1.1
                0x0000000080035d68      0x2f5 /usr/local/xenon/usr/lib/libxenon.a(xenon_sfcx.o)
                                        0x2f7 (size before relaxing)
 *fill*         0x000000008003605d        0x3 00
 .rodata        0x0000000080036060        0x6 /usr/local/xenon/usr/lib/libxenon.a(xenon_config.o)
 .rodata.str1.1
                0x0000000080036066       0x40 /usr/local/xenon/usr/lib/libxenon.a(xenon_config.o)
 *fill*         0x00000000800360a6        0x2 00
 .rodata        0x00000000800360a8      0x3ac /usr/local/xenon/usr/lib/libxenon.a(edram.o)
 .rodata.str1.1
                0x0000000080036454       0xe2 /usr/local/xenon/usr/lib/libxenon.a(edram.o)
                                         0xe4 (size before relaxing)
 *fill*         0x0000000080036536        0x2 00
 .rodata.__FUNCTION__.3672
                0x0000000080036538        0x9 /usr/local/xenon/usr/lib/libxenon.a(edram.o)
 .rodata.str1.1
                0x0000000080036541      0x4d2 /usr/local/xenon/usr/lib/libxenon.a(xe.o)
                                        0x4dc (size before relaxing)
 *fill*         0x0000000080036a13        0x1 00
 .rodata        0x0000000080036a14      0x140 /usr/local/xenon/usr/lib/libxenon.a(xenos.o)
 *fill*         0x0000000080036b54        0x4 00
 .rodata.__FUNCTION__.3541
                0x0000000080036b58       0x12 /usr/local/xenon/usr/lib/libxenon.a(xenos.o)
 .rodata.str1.1
                0x0000000080036b6a      0x1fa /usr/local/xenon/usr/lib/libxenon.a(xenos.o)
 *fill*         0x0000000080036d64        0x4 00
 .rodata.CSWTCH.26
                0x0000000080036d68        0x4 /usr/local/xenon/usr/lib/libxenon.a(xenos.o)
 *fill*         0x0000000080036d6c        0x4 00
 .rodata.edid_header
                0x0000000080036d70        0x8 /usr/local/xenon/usr/lib/libxenon.a(xenos_edid.o)
 .rodata.str1.1
                0x0000000080036d78      0x106 /usr/local/xenon/usr/lib/libxenon.a(xenos_edid.o)
 .rodata.str1.1
                0x0000000080036e7e       0x6a /usr/local/xenon/usr/lib/libxenon.a(enet.o)
 .rodata.str1.1
                0x0000000080036ee8       0xca /usr/local/xenon/usr/lib/libxenon.a(network.o)
                                         0xd1 (size before relaxing)
 .rodata.str1.1
                0x0000000080036fb2       0x4b /usr/local/xenon/usr/lib/libxenon.a(lib_malloc.o)
 .rodata.str1.1
                0x0000000080036ffd        0xd /usr/local/xenon/usr/lib/libxenon.a(dummy.o)
 *fill*         0x000000008003700a        0x2 00
 .rodata.ohci_xfer
                0x000000008003700c       0x50 /usr/local/xenon/usr/lib/libxenon.a(ohci.o)
 .rodata.ohci_root_ifdsc
                0x000000008003705c        0x9 /usr/local/xenon/usr/lib/libxenon.a(ohci.o)
 *fill*         0x0000000080037065        0x3 00
 .rodata.ohci_revbits
                0x0000000080037068       0x80 /usr/local/xenon/usr/lib/libxenon.a(ohci.o)
 .rodata.ohci_root_cfgdsc
                0x00000000800370e8        0x9 /usr/local/xenon/usr/lib/libxenon.a(ohci.o)
 .rodata.str1.1
                0x00000000800370f1        0x8 /usr/local/xenon/usr/lib/libxenon.a(ohci.o)
                                         0x11 (size before relaxing)
 .rodata.ohci_root_devdsc
                0x00000000800370f9       0x12 /usr/local/xenon/usr/lib/libxenon.a(ohci.o)
 .rodata.ohci_root_hubdsc
                0x000000008003710b       0x47 /usr/local/xenon/usr/lib/libxenon.a(ohci.o)
 .rodata.ohci_root_epdsc
                0x0000000080037152        0x7 /usr/local/xenon/usr/lib/libxenon.a(ohci.o)
 .rodata.str1.1
                0x0000000080037159      0x61a /usr/local/xenon/usr/lib/libxenon.a(usbdebug.o)
                                        0x672 (size before relaxing)
 *fill*         0x0000000080037773        0x1 00
 .rodata.eptattribs.3269
                0x0000000080037774       0x10 /usr/local/xenon/usr/lib/libxenon.a(usbdebug.o)
 .rodata        0x0000000080037784       0x24 /usr/local/xenon/usr/lib/libxenon.a(xenon_gpio.o)
 .rodata.str1.1
                0x00000000800377a8       0x2e /usr/local/xenon/usr/lib/libxenon.a(mem.o)
 .rodata.str1.1
                0x00000000800377d6       0x2d /usr/local/xenon/usr/lib/libxenon.a(dns.o)
                                         0x3d (size before relaxing)
 *fill*         0x0000000080037803        0x1 00
 .rodata.memp_num
                0x0000000080037804       0x14 /usr/local/xenon/usr/lib/libxenon.a(memp.o)
 .rodata.str1.1
                0x0000000080037818       0x1f /usr/local/xenon/usr/lib/libxenon.a(memp.o)
                                         0x2f (size before relaxing)
 *fill*         0x0000000080037837        0x1 00
 .rodata.memp_sizes
                0x0000000080037838       0x14 /usr/local/xenon/usr/lib/libxenon.a(memp.o)
 .rodata.str1.1
                0x000000008003784c       0x20 /usr/local/xenon/usr/lib/libxenon.a(netif.o)
                                         0x30 (size before relaxing)
 .rodata.str1.1
                0x000000008003786c       0x1f /usr/local/xenon/usr/lib/libxenon.a(pbuf.o)
                                         0x2f (size before relaxing)
 *fill*         0x000000008003788b        0x1 00
 .rodata.tcp_close_shutdown
                0x000000008003788c       0x20 /usr/local/xenon/usr/lib/libxenon.a(tcp.o)
 *fill*         0x00000000800378ac        0x4 00
 .rodata.tcp_backoff
                0x00000000800378b0        0xd /usr/local/xenon/usr/lib/libxenon.a(tcp.o)
                0x00000000800378b0                tcp_backoff
 .rodata.str1.1
                0x00000000800378bd       0x86 /usr/local/xenon/usr/lib/libxenon.a(tcp.o)
                                         0x96 (size before relaxing)
 *fill*         0x0000000080037943        0x1 00
 .rodata.ipaddr_aton
                0x0000000080037944       0x14 /usr/local/xenon/usr/lib/libxenon.a(ip_addr.o)
 .rodata.str1.1
                0x0000000080037958       0x27 /usr/local/xenon/usr/lib/libxenon.a(ip_addr.o)
                                         0x37 (size before relaxing)
 .rodata.str1.1
                0x000000008003797f       0x22 /usr/local/xenon/usr/lib/libxenon.a(ip.o)
                                         0x32 (size before relaxing)
 .rodata.str1.1
                0x00000000800379a1       0x27 /usr/local/xenon/usr/lib/libxenon.a(ip_frag.o)
                                         0x37 (size before relaxing)
 .rodata.str1.1
                0x00000000800379c8       0x22 /usr/local/xenon/usr/lib/libxenon.a(tcp_out.o)
                                         0x32 (size before relaxing)
 .rodata.str1.1
                0x00000000800379ea       0x1e /usr/local/xenon/usr/lib/libxenon.a(udp.o)
                                         0x2e (size before relaxing)
 .rodata.str1.1
                0x0000000080037a08       0x22 /usr/local/xenon/usr/lib/libxenon.a(etharp.o)
                                         0x32 (size before relaxing)
 .rodata.str1.1
                0x0000000080037a2a       0x1f /usr/local/xenon/usr/lib/libxenon.a(dhcp.o)
                                         0x2f (size before relaxing)
 *fill*         0x0000000080037a49        0x3 00
 .rodata.tcp_input
                0x0000000080037a4c       0x20 /usr/local/xenon/usr/lib/libxenon.a(tcp_in.o)
 .rodata.str1.1
                0x0000000080037a6c       0x21 /usr/local/xenon/usr/lib/libxenon.a(tcp_in.o)
                                         0x31 (size before relaxing)
 .rodata.str1.1
                0x0000000080037a8d       0x24 /usr/local/xenon/usr/lib/libxenon.a(icmp.o)
                                         0x34 (size before relaxing)
 *fill*         0x0000000080037ab1        0x3 00
 .rodata        0x0000000080037ab4       0x34 /usr/local/xenon/lib/gcc/xenon/4.6.1/32/libgcc.a(unwind-dw2-fde-glibc.o)
 .rodata.str1.4
                0x0000000080037ae8       0x3f /usr/local/xenon/xenon/lib/32/libc.a(lib_a-assert.o)
                                         0x43 (size before relaxing)
 *fill*         0x0000000080037b27        0x1 00
 .rodata.str1.4
                0x0000000080037b28        0x2 /usr/local/xenon/xenon/lib/32/libc.a(lib_a-impure.o)
 *fill*         0x0000000080037b2a        0x2 00
 .rodata.str1.4
                0x0000000080037b2c        0x2 /usr/local/xenon/xenon/lib/32/libc.a(lib_a-puts.o)
 *fill*         0x0000000080037b2e        0x2 00
 .rodata        0x0000000080037b30      0x184 /usr/local/xenon/xenon/lib/32/libc.a(lib_a-svfprintf.o)
 .rodata.cst4   0x0000000080037cb4        0x4 /usr/local/xenon/xenon/lib/32/libc.a(lib_a-svfprintf.o)
 .rodata.str1.4
                0x0000000080037cb8       0x42 /usr/local/xenon/xenon/lib/32/libc.a(lib_a-svfprintf.o)
 *fill*         0x0000000080037cfa        0x2 00
 .rodata        0x0000000080037cfc      0x184 /usr/local/xenon/xenon/lib/32/libc.a(lib_a-vfiprintf.o)
 .rodata.str1.4
                0x0000000000000000       0x2f /usr/local/xenon/xenon/lib/32/libc.a(lib_a-vfiprintf.o)
 .rodata        0x0000000080037e80      0x184 /usr/local/xenon/xenon/lib/32/libc.a(lib_a-vfprintf.o)
 .rodata.cst4   0x0000000000000000        0x4 /usr/local/xenon/xenon/lib/32/libc.a(lib_a-vfprintf.o)
 .rodata.str1.4
                0x0000000000000000       0x42 /usr/local/xenon/xenon/lib/32/libc.a(lib_a-vfprintf.o)
 .rodata.cst4   0x0000000080038004       0x20 /usr/local/xenon/xenon/lib/32/libc.a(lib_a-dtoa.o)
                                         0x24 (size before relaxing)
 *fill*         0x0000000080038024        0x4 00
 .rodata.cst8   0x0000000080038028       0x18 /usr/local/xenon/xenon/lib/32/libc.a(lib_a-dtoa.o)
 .rodata.str1.4
                0x0000000080038040       0x10 /usr/local/xenon/xenon/lib/32/libc.a(lib_a-dtoa.o)
                                         0x12 (size before relaxing)
 .rodata.str1.4
                0x0000000080038050       0x10 /usr/local/xenon/xenon/lib/32/libc.a(lib_a-locale.o)
                                         0x16 (size before relaxing)
 .rodata        0x0000000080038060      0x128 /usr/local/xenon/xenon/lib/32/libc.a(lib_a-mprec.o)
                0x0000000080038070                __mprec_tinytens
                0x0000000080038098                __mprec_bigtens
                0x00000000800380c0                __mprec_tens
 .rodata.cst4   0x0000000000000000        0x8 /usr/local/xenon/xenon/lib/32/libc.a(lib_a-mprec.o)

.ctors          0x0000000080038188        0x0
                0x0000000080038188                __CTOR_LIST__ = .
 *(.ctors)
                0x0000000080038188                __CTOR_END__ = .

.dtors          0x0000000080038188        0x0
                0x0000000080038188                __DTOR_LIST__ = .
 *(.dtors)
                0x0000000080038188                __DTOR_END__ = .

.eh_frame_hdr   0x0000000080038188       0xe4
 *(.eh_frame_hdr)
 .eh_frame_hdr  0x0000000080038188       0xe4 /usr/local/xenon/lib/gcc/xenon/4.6.1/32/libgcc.a(crtsavgpr.o)

.eh_frame       0x000000008003826c      0x584
                0x000000008003826c                PROVIDE (__eh_frame_start, .)
 *(.eh_frame)
 .eh_frame      0x0000000000000000        0x0 /usr/local/xenon/lib/gcc/xenon/4.6.1/../../../../xenon/lib/../lib/crt1.o
 .eh_frame      0x000000008003826c        0x0 /usr/local/xenon/lib/gcc/xenon/4.6.1/32/crtbegin.o
 .eh_frame      0x000000008003826c       0x28 /usr/local/xenon/lib/gcc/xenon/4.6.1/32/libgcc.a(crtsavgpr.o)
 .eh_frame      0x0000000080038294       0x7c /usr/local/xenon/lib/gcc/xenon/4.6.1/32/libgcc.a(crtresxgpr.o)
 .eh_frame      0x0000000080038310      0x464 /usr/local/xenon/lib/gcc/xenon/4.6.1/32/libgcc.a(unwind-dw2-fde-glibc.o)
                                        0x478 (size before relaxing)
 .eh_frame      0x0000000080038774       0x38 /usr/local/xenon/lib/gcc/xenon/4.6.1/32/libgcc.a(_udivdi3.o)
                                         0x4c (size before relaxing)
 .eh_frame      0x00000000800387ac       0x3c /usr/local/xenon/lib/gcc/xenon/4.6.1/32/libgcc.a(_umoddi3.o)
                                         0x50 (size before relaxing)
 .eh_frame      0x00000000800387e8        0x4 /usr/local/xenon/lib/gcc/xenon/4.6.1/32/crtend.o
                0x00000000800387ec        0x4 LONG 0x0

.rela.dyn       0x00000000800387f0        0x0
 .rela.iplt     0x0000000000000000        0x0 /usr/local/xenon/lib/gcc/xenon/4.6.1/../../../../xenon/lib/../lib/crt1.o
 .rela.text.call_ctors
                0x0000000000000000        0x0 /usr/local/xenon/lib/gcc/xenon/4.6.1/../../../../xenon/lib/../lib/crt1.o
 .rela.text.c_register_frame
                0x0000000000000000        0x0 /usr/local/xenon/lib/gcc/xenon/4.6.1/../../../../xenon/lib/../lib/crt1.o
 .rela.text.__crtmain
                0x0000000000000000        0x0 /usr/local/xenon/lib/gcc/xenon/4.6.1/../../../../xenon/lib/../lib/crt1.o
 .rela.got2     0x0000000000000000        0x0 /usr/local/xenon/lib/gcc/xenon/4.6.1/../../../../xenon/lib/../lib/crt1.o
 .rela.text.startup.main
                0x0000000000000000        0x0 /usr/local/xenon/lib/gcc/xenon/4.6.1/../../../../xenon/lib/../lib/crt1.o
 .rela.text.__check_argv
                0x0000000000000000        0x0 /usr/local/xenon/lib/gcc/xenon/4.6.1/../../../../xenon/lib/../lib/crt1.o
 .rela.text     0x0000000000000000        0x0 /usr/local/xenon/lib/gcc/xenon/4.6.1/../../../../xenon/lib/../lib/crt1.o
 .rela.text.console_init
                0x0000000000000000        0x0 /usr/local/xenon/lib/gcc/xenon/4.6.1/../../../../xenon/lib/../lib/crt1.o
 .rela.text.console_close
                0x0000000000000000        0x0 /usr/local/xenon/lib/gcc/xenon/4.6.1/../../../../xenon/lib/../lib/crt1.o
 .rela.text.__dirreset
                0x0000000000000000        0x0 /usr/local/xenon/lib/gcc/xenon/4.6.1/../../../../xenon/lib/../lib/crt1.o
 .rela.text.__dirnext
                0x0000000000000000        0x0 /usr/local/xenon/lib/gcc/xenon/4.6.1/../../../../xenon/lib/../lib/crt1.o
 .rela.text.__libc_lock_init
                0x0000000000000000        0x0 /usr/local/xenon/lib/gcc/xenon/4.6.1/../../../../xenon/lib/../lib/crt1.o
 .rela.text.__libc_lock_close
                0x0000000000000000        0x0 /usr/local/xenon/lib/gcc/xenon/4.6.1/../../../../xenon/lib/../lib/crt1.o
 .rela.text.__libc_lock_release
                0x0000000000000000        0x0 /usr/local/xenon/lib/gcc/xenon/4.6.1/../../../../xenon/lib/../lib/crt1.o
 .rela.text.__libc_lock_acquire
                0x0000000000000000        0x0 /usr/local/xenon/lib/gcc/xenon/4.6.1/../../../../xenon/lib/../lib/crt1.o
 .rela.text.__malloc_lock
                0x0000000000000000        0x0 /usr/local/xenon/lib/gcc/xenon/4.6.1/../../../../xenon/lib/../lib/crt1.o
 .rela.text.__malloc_unlock
                0x0000000000000000        0x0 /usr/local/xenon/lib/gcc/xenon/4.6.1/../../../../xenon/lib/../lib/crt1.o
 .rela.text._exit
                0x0000000000000000        0x0 /usr/local/xenon/lib/gcc/xenon/4.6.1/../../../../xenon/lib/../lib/crt1.o
 .rela.text.sbrk
                0x0000000000000000        0x0 /usr/local/xenon/lib/gcc/xenon/4.6.1/../../../../xenon/lib/../lib/crt1.o
 .rela.text.execve
                0x0000000000000000        0x0 /usr/local/xenon/lib/gcc/xenon/4.6.1/../../../../xenon/lib/../lib/crt1.o
 .rela.text.fork
                0x0000000000000000        0x0 /usr/local/xenon/lib/gcc/xenon/4.6.1/../../../../xenon/lib/../lib/crt1.o
 .rela.text.getpid
                0x0000000000000000        0x0 /usr/local/xenon/lib/gcc/xenon/4.6.1/../../../../xenon/lib/../lib/crt1.o
 .rela.text.getrusage
                0x0000000000000000        0x0 /usr/local/xenon/lib/gcc/xenon/4.6.1/../../../../xenon/lib/../lib/crt1.o
 .rela.text.gettimeofday
                0x0000000000000000        0x0 /usr/local/xenon/lib/gcc/xenon/4.6.1/../../../../xenon/lib/../lib/crt1.o
 .rela.text.kill
                0x0000000000000000        0x0 /usr/local/xenon/lib/gcc/xenon/4.6.1/../../../../xenon/lib/../lib/crt1.o
 .rela.text.FindDevice
                0x0000000000000000        0x0 /usr/local/xenon/lib/gcc/xenon/4.6.1/../../../../xenon/lib/../lib/crt1.o
 .rela.text.open
                0x0000000000000000        0x0 /usr/local/xenon/lib/gcc/xenon/4.6.1/../../../../xenon/lib/../lib/crt1.o
 .rela.text.read
                0x0000000000000000        0x0 /usr/local/xenon/lib/gcc/xenon/4.6.1/../../../../xenon/lib/../lib/crt1.o
 .rela.text.write
                0x0000000000000000        0x0 /usr/local/xenon/lib/gcc/xenon/4.6.1/../../../../xenon/lib/../lib/crt1.o
 .rela.text.fstat
                0x0000000000000000        0x0 /usr/local/xenon/lib/gcc/xenon/4.6.1/../../../../xenon/lib/../lib/crt1.o
 .rela.text.stat
                0x0000000000000000        0x0 /usr/local/xenon/lib/gcc/xenon/4.6.1/../../../../xenon/lib/../lib/crt1.o
 .rela.text.statvfs
                0x0000000000000000        0x0 /usr/local/xenon/lib/gcc/xenon/4.6.1/../../../../xenon/lib/../lib/crt1.o
 .rela.text.fsync
                0x0000000000000000        0x0 /usr/local/xenon/lib/gcc/xenon/4.6.1/../../../../xenon/lib/../lib/crt1.o
 .rela.text.ftruncate
                0x0000000000000000        0x0 /usr/local/xenon/lib/gcc/xenon/4.6.1/../../../../xenon/lib/../lib/crt1.o
 .rela.text.link
                0x0000000000000000        0x0 /usr/local/xenon/lib/gcc/xenon/4.6.1/../../../../xenon/lib/../lib/crt1.o
 .rela.text.lseek
                0x0000000000000000        0x0 /usr/local/xenon/lib/gcc/xenon/4.6.1/../../../../xenon/lib/../lib/crt1.o
 .rela.text.rename
                0x0000000000000000        0x0 /usr/local/xenon/lib/gcc/xenon/4.6.1/../../../../xenon/lib/../lib/crt1.o
 .rela.text.unlink
                0x0000000000000000        0x0 /usr/local/xenon/lib/gcc/xenon/4.6.1/../../../../xenon/lib/../lib/crt1.o
 .rela.text.close
                0x0000000000000000        0x0 /usr/local/xenon/lib/gcc/xenon/4.6.1/../../../../xenon/lib/../lib/crt1.o
 .rela.text.chdir
                0x0000000000000000        0x0 /usr/local/xenon/lib/gcc/xenon/4.6.1/../../../../xenon/lib/../lib/crt1.o
 .rela.text.getcwd
                0x0000000000000000        0x0 /usr/local/xenon/lib/gcc/xenon/4.6.1/../../../../xenon/lib/../lib/crt1.o
 .rela.text.chmod
                0x0000000000000000        0x0 /usr/local/xenon/lib/gcc/xenon/4.6.1/../../../../xenon/lib/../lib/crt1.o
 .rela.text.fchmod
                0x0000000000000000        0x0 /usr/local/xenon/lib/gcc/xenon/4.6.1/../../../../xenon/lib/../lib/crt1.o
 .rela.text.opendir
                0x0000000000000000        0x0 /usr/local/xenon/lib/gcc/xenon/4.6.1/../../../../xenon/lib/../lib/crt1.o
 .rela.text.closedir
                0x0000000000000000        0x0 /usr/local/xenon/lib/gcc/xenon/4.6.1/../../../../xenon/lib/../lib/crt1.o
 .rela.text.mkdir
                0x0000000000000000        0x0 /usr/local/xenon/lib/gcc/xenon/4.6.1/../../../../xenon/lib/../lib/crt1.o
 .rela.text.xenon_sbrk
                0x0000000000000000        0x0 /usr/local/xenon/lib/gcc/xenon/4.6.1/../../../../xenon/lib/../lib/crt1.o
 .rela.text.usbctrl_set_led_callback
                0x0000000000000000        0x0 /usr/local/xenon/lib/gcc/xenon/4.6.1/../../../../xenon/lib/../lib/crt1.o
 .rela.text.usbctrl_set_leds
                0x0000000000000000        0x0 /usr/local/xenon/lib/gcc/xenon/4.6.1/../../../../xenon/lib/../lib/crt1.o
 .rela.text.usbctrl_poll
                0x0000000000000000        0x0 /usr/local/xenon/lib/gcc/xenon/4.6.1/../../../../xenon/lib/../lib/crt1.o
 .rela.text.usbctrl_attach
                0x0000000000000000        0x0 /usr/local/xenon/lib/gcc/xenon/4.6.1/../../../../xenon/lib/../lib/crt1.o
 .rela.text.usbctrl_set_rumble
                0x0000000000000000        0x0 /usr/local/xenon/lib/gcc/xenon/4.6.1/../../../../xenon/lib/../lib/crt1.o
 .rela.text.usb_create_pipe
                0x0000000000000000        0x0 /usr/local/xenon/lib/gcc/xenon/4.6.1/../../../../xenon/lib/../lib/crt1.o
 .rela.text.usb_destroy_pipe
                0x0000000000000000        0x0 /usr/local/xenon/lib/gcc/xenon/4.6.1/../../../../xenon/lib/../lib/crt1.o
 .rela.text.usb_destroy_all_pipes
                0x0000000000000000        0x0 /usr/local/xenon/lib/gcc/xenon/4.6.1/../../../../xenon/lib/../lib/crt1.o
 .rela.text.usb_destroy_device
                0x0000000000000000        0x0 /usr/local/xenon/lib/gcc/xenon/4.6.1/../../../../xenon/lib/../lib/crt1.o
 .rela.text.usb_create_device
                0x0000000000000000        0x0 /usr/local/xenon/lib/gcc/xenon/4.6.1/../../../../xenon/lib/../lib/crt1.o
 .rela.text.usb_make_request
                0x0000000000000000        0x0 /usr/local/xenon/lib/gcc/xenon/4.6.1/../../../../xenon/lib/../lib/crt1.o
 .rela.text.usb_free_request
                0x0000000000000000        0x0 /usr/local/xenon/lib/gcc/xenon/4.6.1/../../../../xenon/lib/../lib/crt1.o
 .rela.text.usb_clear_stall
                0x0000000000000000        0x0 /usr/local/xenon/lib/gcc/xenon/4.6.1/../../../../xenon/lib/../lib/crt1.o
 .rela.text.usb_std_request
                0x0000000000000000        0x0 /usr/local/xenon/lib/gcc/xenon/4.6.1/../../../../xenon/lib/../lib/crt1.o
 .rela.text.usb_get_string
                0x0000000000000000        0x0 /usr/local/xenon/lib/gcc/xenon/4.6.1/../../../../xenon/lib/../lib/crt1.o
 .rela.text.usb_get_device_descriptor
                0x0000000000000000        0x0 /usr/local/xenon/lib/gcc/xenon/4.6.1/../../../../xenon/lib/../lib/crt1.o
 .rela.text.usb_get_config_descriptor
                0x0000000000000000        0x0 /usr/local/xenon/lib/gcc/xenon/4.6.1/../../../../xenon/lib/../lib/crt1.o
 .rela.text.usb_initroot
                0x0000000000000000        0x0 /usr/local/xenon/lib/gcc/xenon/4.6.1/../../../../xenon/lib/../lib/crt1.o
 .rela.data.usb_drivers
                0x0000000000000000        0x0 /usr/local/xenon/lib/gcc/xenon/4.6.1/../../../../xenon/lib/../lib/crt1.o
 .rela.text.usbhid_attach
                0x0000000000000000        0x0 /usr/local/xenon/lib/gcc/xenon/4.6.1/../../../../xenon/lib/../lib/crt1.o
 .rela.text.usbhub_detach
                0x0000000000000000        0x0 /usr/local/xenon/lib/gcc/xenon/4.6.1/../../../../xenon/lib/../lib/crt1.o
 .rela.text.usbhub_attach
                0x0000000000000000        0x0 /usr/local/xenon/lib/gcc/xenon/4.6.1/../../../../xenon/lib/../lib/crt1.o
 .rela.text.usbhub_scan1
                0x0000000000000000        0x0 /usr/local/xenon/lib/gcc/xenon/4.6.1/../../../../xenon/lib/../lib/crt1.o
 .rela.text.usb_init_one_ohci
                0x0000000000000000        0x0 /usr/local/xenon/lib/gcc/xenon/4.6.1/../../../../xenon/lib/../lib/crt1.o
 .rela.text.usb_do_poll
                0x0000000000000000        0x0 /usr/local/xenon/lib/gcc/xenon/4.6.1/../../../../xenon/lib/../lib/crt1.o
 .rela.text.EHCI_do_one
                0x0000000000000000        0x0 /usr/local/xenon/lib/gcc/xenon/4.6.1/../../../../xenon/lib/../lib/crt1.o
 .rela.text.USBStorage_Init
                0x0000000000000000        0x0 /usr/local/xenon/lib/gcc/xenon/4.6.1/../../../../xenon/lib/../lib/crt1.o
 .rela.text.rawflash_writeImage
                0x0000000000000000        0x0 /usr/local/xenon/lib/gcc/xenon/4.6.1/../../../../xenon/lib/../lib/crt1.o
 .rela.text.try_rawflash
                0x0000000000000000        0x0 /usr/local/xenon/lib/gcc/xenon/4.6.1/../../../../xenon/lib/../lib/crt1.o
 .rela.text.xenon_config_init
                0x0000000000000000        0x0 /usr/local/xenon/lib/gcc/xenon/4.6.1/../../../../xenon/lib/../lib/crt1.o
 .rela.text.edram_p2
                0x0000000000000000        0x0 /usr/local/xenon/lib/gcc/xenon/4.6.1/../../../../xenon/lib/../lib/crt1.o
 .rela.text.edram_init_state1
                0x0000000000000000        0x0 /usr/local/xenon/lib/gcc/xenon/4.6.1/../../../../xenon/lib/../lib/crt1.o
 .rela.text.edram_72c
                0x0000000000000000        0x0 /usr/local/xenon/lib/gcc/xenon/4.6.1/../../../../xenon/lib/../lib/crt1.o
 .rela.text.edram_974
                0x0000000000000000        0x0 /usr/local/xenon/lib/gcc/xenon/4.6.1/../../../../xenon/lib/../lib/crt1.o
 .rela.text.edram_9e4
                0x0000000000000000        0x0 /usr/local/xenon/lib/gcc/xenon/4.6.1/../../../../xenon/lib/../lib/crt1.o
 .rela.text.edram_bec
                0x0000000000000000        0x0 /usr/local/xenon/lib/gcc/xenon/4.6.1/../../../../xenon/lib/../lib/crt1.o
 .rela.text.edram_4c
                0x0000000000000000        0x0 /usr/local/xenon/lib/gcc/xenon/4.6.1/../../../../xenon/lib/../lib/crt1.o
 .rela.text.edram_init
                0x0000000000000000        0x0 /usr/local/xenon/lib/gcc/xenon/4.6.1/../../../../xenon/lib/../lib/crt1.o
 .rela.text.Xe_pMasterInit
                0x0000000000000000        0x0 /usr/local/xenon/lib/gcc/xenon/4.6.1/../../../../xenon/lib/../lib/crt1.o
 .rela.text.enet_init
                0x0000000000000000        0x0 /usr/local/xenon/lib/gcc/xenon/4.6.1/../../../../xenon/lib/../lib/crt1.o
 .rela.text.enet_poll
                0x0000000000000000        0x0 /usr/local/xenon/lib/gcc/xenon/4.6.1/../../../../xenon/lib/../lib/crt1.o
 .rela.text.network_poll
                0x0000000000000000        0x0 /usr/local/xenon/lib/gcc/xenon/4.6.1/../../../../xenon/lib/../lib/crt1.o
 .rela.text.network_init
                0x0000000000000000        0x0 /usr/local/xenon/lib/gcc/xenon/4.6.1/../../../../xenon/lib/../lib/crt1.o
 .rela.text.network_print_config
                0x0000000000000000        0x0 /usr/local/xenon/lib/gcc/xenon/4.6.1/../../../../xenon/lib/../lib/crt1.o
 .rela.text.kmem_init
                0x0000000000000000        0x0 /usr/local/xenon/lib/gcc/xenon/4.6.1/../../../../xenon/lib/../lib/crt1.o
 .rela.text._ohci_dma_alloc
                0x0000000000000000        0x0 /usr/local/xenon/lib/gcc/xenon/4.6.1/../../../../xenon/lib/../lib/crt1.o
 .rela.text.ohci_create
                0x0000000000000000        0x0 /usr/local/xenon/lib/gcc/xenon/4.6.1/../../../../xenon/lib/../lib/crt1.o
 .rela.text.mem_init
                0x0000000000000000        0x0 /usr/local/xenon/lib/gcc/xenon/4.6.1/../../../../xenon/lib/../lib/crt1.o
 .rela.text.mem_free
                0x0000000000000000        0x0 /usr/local/xenon/lib/gcc/xenon/4.6.1/../../../../xenon/lib/../lib/crt1.o
 .rela.text.mem_trim
                0x0000000000000000        0x0 /usr/local/xenon/lib/gcc/xenon/4.6.1/../../../../xenon/lib/../lib/crt1.o
 .rela.text.mem_malloc
                0x0000000000000000        0x0 /usr/local/xenon/lib/gcc/xenon/4.6.1/../../../../xenon/lib/../lib/crt1.o
 .rela.text.dns_init
                0x0000000000000000        0x0 /usr/local/xenon/lib/gcc/xenon/4.6.1/../../../../xenon/lib/../lib/crt1.o
 .rela.text.dns_getserver
                0x0000000000000000        0x0 /usr/local/xenon/lib/gcc/xenon/4.6.1/../../../../xenon/lib/../lib/crt1.o
 .rela.text.memp_init
                0x0000000000000000        0x0 /usr/local/xenon/lib/gcc/xenon/4.6.1/../../../../xenon/lib/../lib/crt1.o
 .rela.text.memp_malloc
                0x0000000000000000        0x0 /usr/local/xenon/lib/gcc/xenon/4.6.1/../../../../xenon/lib/../lib/crt1.o
 .rela.text.memp_free
                0x0000000000000000        0x0 /usr/local/xenon/lib/gcc/xenon/4.6.1/../../../../xenon/lib/../lib/crt1.o
 .rela.text.netif_find
                0x0000000000000000        0x0 /usr/local/xenon/lib/gcc/xenon/4.6.1/../../../../xenon/lib/../lib/crt1.o
 .rela.text.netif_set_ipaddr
                0x0000000000000000        0x0 /usr/local/xenon/lib/gcc/xenon/4.6.1/../../../../xenon/lib/../lib/crt1.o
 .rela.text.netif_add
                0x0000000000000000        0x0 /usr/local/xenon/lib/gcc/xenon/4.6.1/../../../../xenon/lib/../lib/crt1.o
 .rela.text.netif_set_default
                0x0000000000000000        0x0 /usr/local/xenon/lib/gcc/xenon/4.6.1/../../../../xenon/lib/../lib/crt1.o
 .rela.text.netif_remove
                0x0000000000000000        0x0 /usr/local/xenon/lib/gcc/xenon/4.6.1/../../../../xenon/lib/../lib/crt1.o
 .rela.text.tcp_bind
                0x0000000000000000        0x0 /usr/local/xenon/lib/gcc/xenon/4.6.1/../../../../xenon/lib/../lib/crt1.o
 .rela.text.tcp_listen_with_backlog
                0x0000000000000000        0x0 /usr/local/xenon/lib/gcc/xenon/4.6.1/../../../../xenon/lib/../lib/crt1.o
 .rela.text.tcp_slowtmr
                0x0000000000000000        0x0 /usr/local/xenon/lib/gcc/xenon/4.6.1/../../../../xenon/lib/../lib/crt1.o
 .rela.text.tcp_pcb_remove
                0x0000000000000000        0x0 /usr/local/xenon/lib/gcc/xenon/4.6.1/../../../../xenon/lib/../lib/crt1.o
 .rela.text.tcp_abandon
                0x0000000000000000        0x0 /usr/local/xenon/lib/gcc/xenon/4.6.1/../../../../xenon/lib/../lib/crt1.o
 .rela.text.tcp_close_shutdown
                0x0000000000000000        0x0 /usr/local/xenon/lib/gcc/xenon/4.6.1/../../../../xenon/lib/../lib/crt1.o
 .rela.text.tcp_fasttmr
                0x0000000000000000        0x0 /usr/local/xenon/lib/gcc/xenon/4.6.1/../../../../xenon/lib/../lib/crt1.o
 .rela.text.tcp_next_iss
                0x0000000000000000        0x0 /usr/local/xenon/lib/gcc/xenon/4.6.1/../../../../xenon/lib/../lib/crt1.o
 .rela.text.tcp_alloc
                0x0000000000000000        0x0 /usr/local/xenon/lib/gcc/xenon/4.6.1/../../../../xenon/lib/../lib/crt1.o
 .rela.text.tcp_connect
                0x0000000000000000        0x0 /usr/local/xenon/lib/gcc/xenon/4.6.1/../../../../xenon/lib/../lib/crt1.o
 .rela.rodata.tcp_pcb_lists
                0x0000000000000000        0x0 /usr/local/xenon/lib/gcc/xenon/4.6.1/../../../../xenon/lib/../lib/crt1.o
 .rela.text.ip_route
                0x0000000000000000        0x0 /usr/local/xenon/lib/gcc/xenon/4.6.1/../../../../xenon/lib/../lib/crt1.o
 .rela.text.ip_input
                0x0000000000000000        0x0 /usr/local/xenon/lib/gcc/xenon/4.6.1/../../../../xenon/lib/../lib/crt1.o
 .rela.text.ip_output_if
                0x0000000000000000        0x0 /usr/local/xenon/lib/gcc/xenon/4.6.1/../../../../xenon/lib/../lib/crt1.o
 .rela.text.ip_output
                0x0000000000000000        0x0 /usr/local/xenon/lib/gcc/xenon/4.6.1/../../../../xenon/lib/../lib/crt1.o
 .rela.text.ip_reass
                0x0000000000000000        0x0 /usr/local/xenon/lib/gcc/xenon/4.6.1/../../../../xenon/lib/../lib/crt1.o
 .rela.text.ip_frag
                0x0000000000000000        0x0 /usr/local/xenon/lib/gcc/xenon/4.6.1/../../../../xenon/lib/../lib/crt1.o
 .rela.text.tcp_create_segment
                0x0000000000000000        0x0 /usr/local/xenon/lib/gcc/xenon/4.6.1/../../../../xenon/lib/../lib/crt1.o
 .rela.text.tcp_write
                0x0000000000000000        0x0 /usr/local/xenon/lib/gcc/xenon/4.6.1/../../../../xenon/lib/../lib/crt1.o
 .rela.text.tcp_enqueue_flags
                0x0000000000000000        0x0 /usr/local/xenon/lib/gcc/xenon/4.6.1/../../../../xenon/lib/../lib/crt1.o
 .rela.text.tcp_output
                0x0000000000000000        0x0 /usr/local/xenon/lib/gcc/xenon/4.6.1/../../../../xenon/lib/../lib/crt1.o
 .rela.text.tcp_rst
                0x0000000000000000        0x0 /usr/local/xenon/lib/gcc/xenon/4.6.1/../../../../xenon/lib/../lib/crt1.o
 .rela.text.tcp_keepalive
                0x0000000000000000        0x0 /usr/local/xenon/lib/gcc/xenon/4.6.1/../../../../xenon/lib/../lib/crt1.o
 .rela.text.tcp_zero_window_probe
                0x0000000000000000        0x0 /usr/local/xenon/lib/gcc/xenon/4.6.1/../../../../xenon/lib/../lib/crt1.o
 .rela.text.udp_input
                0x0000000000000000        0x0 /usr/local/xenon/lib/gcc/xenon/4.6.1/../../../../xenon/lib/../lib/crt1.o
 .rela.text.udp_bind
                0x0000000000000000        0x0 /usr/local/xenon/lib/gcc/xenon/4.6.1/../../../../xenon/lib/../lib/crt1.o
 .rela.text.udp_sendto_if
                0x0000000000000000        0x0 /usr/local/xenon/lib/gcc/xenon/4.6.1/../../../../xenon/lib/../lib/crt1.o
 .rela.text.udp_sendto
                0x0000000000000000        0x0 /usr/local/xenon/lib/gcc/xenon/4.6.1/../../../../xenon/lib/../lib/crt1.o
 .rela.text.udp_connect
                0x0000000000000000        0x0 /usr/local/xenon/lib/gcc/xenon/4.6.1/../../../../xenon/lib/../lib/crt1.o
 .rela.text.udp_remove
                0x0000000000000000        0x0 /usr/local/xenon/lib/gcc/xenon/4.6.1/../../../../xenon/lib/../lib/crt1.o
 .rela.text.etharp_arp_input
                0x0000000000000000        0x0 /usr/local/xenon/lib/gcc/xenon/4.6.1/../../../../xenon/lib/../lib/crt1.o
 .rela.text.etharp_request
                0x0000000000000000        0x0 /usr/local/xenon/lib/gcc/xenon/4.6.1/../../../../xenon/lib/../lib/crt1.o
 .rela.text.etharp_query
                0x0000000000000000        0x0 /usr/local/xenon/lib/gcc/xenon/4.6.1/../../../../xenon/lib/../lib/crt1.o
 .rela.text.etharp_output
                0x0000000000000000        0x0 /usr/local/xenon/lib/gcc/xenon/4.6.1/../../../../xenon/lib/../lib/crt1.o
 .rela.text.ethernet_input
                0x0000000000000000        0x0 /usr/local/xenon/lib/gcc/xenon/4.6.1/../../../../xenon/lib/../lib/crt1.o
 .rela.text.dhcp_recv
                0x0000000000000000        0x0 /usr/local/xenon/lib/gcc/xenon/4.6.1/../../../../xenon/lib/../lib/crt1.o
 .rela.text.dhcp_coarse_tmr
                0x0000000000000000        0x0 /usr/local/xenon/lib/gcc/xenon/4.6.1/../../../../xenon/lib/../lib/crt1.o
 .rela.text.dhcp_fine_tmr
                0x0000000000000000        0x0 /usr/local/xenon/lib/gcc/xenon/4.6.1/../../../../xenon/lib/../lib/crt1.o
 .rela.text.raw_input
                0x0000000000000000        0x0 /usr/local/xenon/lib/gcc/xenon/4.6.1/../../../../xenon/lib/../lib/crt1.o
 .rela.text.unlikely.tcp_receive
                0x0000000000000000        0x0 /usr/local/xenon/lib/gcc/xenon/4.6.1/../../../../xenon/lib/../lib/crt1.o
 .rela.text.tcp_input
                0x0000000000000000        0x0 /usr/local/xenon/lib/gcc/xenon/4.6.1/../../../../xenon/lib/../lib/crt1.o
 .rela.text.icmp_send_response.isra.0
                0x0000000000000000        0x0 /usr/local/xenon/lib/gcc/xenon/4.6.1/../../../../xenon/lib/../lib/crt1.o
 .rela.text.icmp_input
                0x0000000000000000        0x0 /usr/local/xenon/lib/gcc/xenon/4.6.1/../../../../xenon/lib/../lib/crt1.o

.gcc_except_table
 *(.gcc_except_table .gcc_except_table.*)
                0x00000000800387f0                bss_start = .

.bss            0x0000000080038800   0x61fabc
 *(.bss*)
 .bss.xe        0x0000000080038800        0x4 VL.o
 .bss.console_size
                0x0000000080038804        0x4 /usr/local/xenon/usr/lib/libxenon.a(console.o)
 .bss.offset_x  0x0000000080038808        0x4 /usr/local/xenon/usr/lib/libxenon.a(console.o)
 .bss.console_width
                0x000000008003880c        0x4 /usr/local/xenon/usr/lib/libxenon.a(console.o)
 .bss.offset_y  0x0000000080038810        0x4 /usr/local/xenon/usr/lib/libxenon.a(console.o)
 .bss.console_fb
                0x0000000080038814        0x4 /usr/local/xenon/usr/lib/libxenon.a(console.o)
 .bss.console_height
                0x0000000080038818        0x4 /usr/local/xenon/usr/lib/libxenon.a(console.o)
 .bss.max_x     0x000000008003881c        0x4 /usr/local/xenon/usr/lib/libxenon.a(console.o)
 .bss.max_y     0x0000000080038820        0x4 /usr/local/xenon/usr/lib/libxenon.a(console.o)
 .bss.cursor_x  0x0000000080038824        0x4 /usr/local/xenon/usr/lib/libxenon.a(console.o)
 .bss.cursor_y  0x0000000080038828        0x4 /usr/local/xenon/usr/lib/libxenon.a(console.o)
 .bss.valid     0x000000008003882c       0x10 /usr/local/xenon/usr/lib/libxenon.a(input.o)
 .bss.ctrl      0x000000008003883c      0x120 /usr/local/xenon/usr/lib/libxenon.a(input.o)
 .bss.handles   0x000000008003895c     0x1000 /usr/local/xenon/usr/lib/libxenon.a(newlib.o)
 .bss.lockcount
                0x000000008003995c        0x4 /usr/local/xenon/usr/lib/libxenon.a(xenon_syscalls.o)
 .bss.spinlock  0x0000000080039960        0x4 /usr/local/xenon/usr/lib/libxenon.a(xenon_syscalls.o)
 *fill*         0x0000000080039964        0x4 00
 .bss.text      0x0000000080039968     0x1000 /usr/local/xenon/usr/lib/libxenon.a(c_except.o)
 .bss.userpagetable
                0x000000008003a968    0x10000 /usr/local/xenon/usr/lib/libxenon.a(vm.o)
                0x000000008003a968                userpagetable
 .bss.controllers
                0x000000008004a968       0x10 /usr/local/xenon/usr/lib/libxenon.a(usbctrl.o)
 .bss.controller_mask
                0x000000008004a978        0x4 /usr/local/xenon/usr/lib/libxenon.a(usbctrl.o)
 .bss.initdone.3595
                0x000000008004a97c        0x4 /usr/local/xenon/usr/lib/libxenon.a(usbmain.o)
 .bss.in_poll.3582
                0x000000008004a980        0x4 /usr/local/xenon/usr/lib/libxenon.a(usbmain.o)
 .bss.ums_init_done
                0x000000008004a984        0x4 /usr/local/xenon/usr/lib/libxenon.a(tinyehci.o)
 .bss.usbstorage_ready
                0x000000008004a988        0x4 /usr/local/xenon/usr/lib/libxenon.a(tinyehci.o)
 .bss.__mounted
                0x000000008004a98c        0x1 /usr/local/xenon/usr/lib/libxenon.a(tinyehci.o)
 *fill*         0x000000008004a98d        0x3 00
 .bss.__ehci    0x000000008004a990        0x4 /usr/local/xenon/usr/lib/libxenon.a(tinyehci.o)
 .bss._old_udd  0x000000008004a994       0x16 /usr/local/xenon/usr/lib/libxenon.a(tinyehci.o)
 .bss.__vid     0x000000008004a9aa        0x2 /usr/local/xenon/usr/lib/libxenon.a(tinyehci.o)
 .bss.__usbfd   0x000000008004a9ac       0xa4 /usr/local/xenon/usr/lib/libxenon.a(tinyehci.o)
 .bss.udd.4140  0x000000008004aa50       0x16 /usr/local/xenon/usr/lib/libxenon.a(tinyehci.o)
 .bss.__pid     0x000000008004aa66        0x2 /usr/local/xenon/usr/lib/libxenon.a(tinyehci.o)
 .bss.thread_state
                0x000000008004aa68       0x18 /usr/local/xenon/usr/lib/libxenon.a(xenon_power.o)
 .bss.stack     0x000000008004aa80     0x5000 /usr/local/xenon/usr/lib/libxenon.a(xenon_power.o)
 .bss.sfc       0x000000008004fa80       0x44 /usr/local/xenon/usr/lib/libxenon.a(xenon_sfcx.o)
                0x000000008004fa80                sfc
 .bss.secured_settings
                0x000000008004fac4      0x208 /usr/local/xenon/usr/lib/libxenon.a(xenon_config.o)
                0x000000008004fac4                secured_settings
 .bss.xenon_config_initialized
                0x000000008004fccc        0x4 /usr/local/xenon/usr/lib/libxenon.a(xenon_config.o)
 .bss.ptr.3827  0x000000008004fcd0        0x4 /usr/local/xenon/usr/lib/libxenon.a(edram.o)
 .bss.base.3826
                0x000000008004fcd4        0x4 /usr/local/xenon/usr/lib/libxenon.a(edram.o)
 .bss.xenos_current_mode
                0x000000008004fcd8        0x4 /usr/local/xenon/usr/lib/libxenon.a(xenos.o)
 .bss.xenos_edid
                0x000000008004fcdc        0x4 /usr/local/xenon/usr/lib/libxenon.a(xenos.o)
 .bss.now       0x000000008004fce0        0x8 /usr/local/xenon/usr/lib/libxenon.a(network.o)
 .bss.now2      0x000000008004fce8        0x8 /usr/local/xenon/usr/lib/libxenon.a(network.o)
 .bss.dhcp_wait
                0x000000008004fcf0        0x8 /usr/local/xenon/usr/lib/libxenon.a(network.o)
 .bss.last_dhcp_fine
                0x000000008004fcf8        0x8 /usr/local/xenon/usr/lib/libxenon.a(network.o)
 .bss.last_tcp  0x000000008004fd00        0x8 /usr/local/xenon/usr/lib/libxenon.a(network.o)
 .bss.last_dhcp_coarse
                0x000000008004fd08        0x8 /usr/local/xenon/usr/lib/libxenon.a(network.o)
 .bss.kmem_init_done
                0x000000008004fd10        0x4 /usr/local/xenon/usr/lib/libxenon.a(lib_malloc.o)
 *fill*         0x000000008004fd14        0x4 00
 .bss.heap      0x000000008004fd18   0x100000 /usr/local/xenon/usr/lib/libxenon.a(lib_malloc.o)
 .bss.buf.3256  0x000000008014fd18      0x100 /usr/local/xenon/usr/lib/libxenon.a(usbdebug.o)
 .bss.aligned_mem
                0x000000008014fe18        0x4 /usr/local/xenon/usr/lib/libxenon.a(usb_os.o)
 .bss.aligned_base
                0x000000008014fe1c        0x4 /usr/local/xenon/usr/lib/libxenon.a(usb_os.o)
 .bss.heapspace
                0x000000008014fe20    0x40000 /usr/local/xenon/usr/lib/libxenon.a(usb_os.o)
 .bss.lfree     0x000000008018fe20        0x4 /usr/local/xenon/usr/lib/libxenon.a(mem.o)
 .bss.ram_end   0x000000008018fe24        0x4 /usr/local/xenon/usr/lib/libxenon.a(mem.o)
 .bss.ram       0x000000008018fe28        0x4 /usr/local/xenon/usr/lib/libxenon.a(mem.o)
 .bss.dns_table
                0x000000008018fe2c      0x460 /usr/local/xenon/usr/lib/libxenon.a(dns.o)
 .bss.dns_servers
                0x000000008019028c        0x8 /usr/local/xenon/usr/lib/libxenon.a(dns.o)
 *fill*         0x0000000080190294        0x4 00
 .bss.dns_payload_buffer
                0x0000000080190298      0x203 /usr/local/xenon/usr/lib/libxenon.a(dns.o)
 *fill*         0x000000008019049b        0x1 00
 .bss.dns_pcb   0x000000008019049c        0x4 /usr/local/xenon/usr/lib/libxenon.a(dns.o)
 .bss.dns_payload
                0x00000000801904a0        0x4 /usr/local/xenon/usr/lib/libxenon.a(dns.o)
 *fill*         0x00000000801904a4        0x4 00
 .bss.memp_memory
                0x00000000801904a8    0xc754b /usr/local/xenon/usr/lib/libxenon.a(memp.o)
 *fill*         0x00000000802579f3        0x1 00
 .bss.memp_tab  0x00000000802579f4       0x28 /usr/local/xenon/usr/lib/libxenon.a(memp.o)
 .bss.netifnum.3549
                0x0000000080257a1c        0x1 /usr/local/xenon/usr/lib/libxenon.a(netif.o)
 .bss.tcp_timer
                0x0000000080257a1d        0x1 /usr/local/xenon/usr/lib/libxenon.a(tcp.o)
 .bss.ip_id     0x0000000080257a1e        0x2 /usr/local/xenon/usr/lib/libxenon.a(ip.o)
 .bss.reassdatagrams
                0x0000000080257a20        0x4 /usr/local/xenon/usr/lib/libxenon.a(ip_frag.o)
 .bss.ip_reass_pbufcount
                0x0000000080257a24        0x2 /usr/local/xenon/usr/lib/libxenon.a(ip_frag.o)
 .bss.etharp_cached_entry
                0x0000000080257a26        0x1 /usr/local/xenon/usr/lib/libxenon.a(etharp.o)
 *fill*         0x0000000080257a27        0x1 00
 .bss.arp_table
                0x0000000080257a28       0xa0 /usr/local/xenon/usr/lib/libxenon.a(etharp.o)
 .bss.raw_pcbs  0x0000000080257ac8        0x4 /usr/local/xenon/usr/lib/libxenon.a(raw.o)
 .bss.seqno     0x0000000080257acc        0x4 /usr/local/xenon/usr/lib/libxenon.a(tcp_in.o)
 .bss.iphdr     0x0000000080257ad0        0x4 /usr/local/xenon/usr/lib/libxenon.a(tcp_in.o)
 .bss.tcplen    0x0000000080257ad4        0x2 /usr/local/xenon/usr/lib/libxenon.a(tcp_in.o)
 *fill*         0x0000000080257ad6        0x2 00
 .bss.ackno     0x0000000080257ad8        0x4 /usr/local/xenon/usr/lib/libxenon.a(tcp_in.o)
 .bss.flags     0x0000000080257adc        0x1 /usr/local/xenon/usr/lib/libxenon.a(tcp_in.o)
 .bss.recv_flags
                0x0000000080257add        0x1 /usr/local/xenon/usr/lib/libxenon.a(tcp_in.o)
 *fill*         0x0000000080257ade        0x2 00
 .bss.tcphdr    0x0000000080257ae0        0x4 /usr/local/xenon/usr/lib/libxenon.a(tcp_in.o)
 .bss.recv_data
                0x0000000080257ae4        0x4 /usr/local/xenon/usr/lib/libxenon.a(tcp_in.o)
 .bss.inseg     0x0000000080257ae8       0x10 /usr/local/xenon/usr/lib/libxenon.a(tcp_in.o)
 .bss           0x0000000080257af8       0x14 /usr/local/xenon/lib/gcc/xenon/4.6.1/32/libgcc.a(unwind-dw2-fde-glibc.o)
 .bss           0x0000000080257b0c       0x28 /usr/local/xenon/xenon/lib/32/libc.a(lib_a-mallocr.o)
                0x0000000080257b0c                __malloc_current_mallinfo
 COMMON         0x0000000080257b34       0x10 /usr/local/xenon/usr/lib/libxenon.a(usbmain.o)
                0x0000000080257b34                usb_buses
 COMMON         0x0000000080257b44      0x340 /usr/local/xenon/usr/lib/libxenon.a(tinyehci.o)
                0x0000000080257b44                ehci_hcds
 *fill*         0x0000000080257e84        0x4 00
 COMMON         0x0000000080257e88      0x210 /usr/local/xenon/usr/lib/libxenon.a(xenon_config.o)
                0x0000000080257e88                pagebuf
 COMMON         0x0000000080258098       0x28 /usr/local/xenon/usr/lib/libxenon.a(edram.o)
                0x0000000080258098                reloc
 COMMON         0x00000000802580c0       0x40 /usr/local/xenon/usr/lib/libxenon.a(network.o)
                0x00000000802580c0                netif
 COMMON         0x0000000080258100        0xc /usr/local/xenon/usr/lib/libxenon.a(lib_malloc.o)
                0x0000000080258100                kmempool
 *fill*         0x000000008025810c        0x4 00
 COMMON         0x0000000080258110   0x40001c /usr/local/xenon/usr/lib/libxenon.a(mem.o)
                0x0000000080258110                ram_heap
 COMMON         0x000000008065812c      0x158 /usr/local/xenon/usr/lib/libxenon.a(stats.o)
                0x000000008065812c                lwip_stats
 *fill*         0x0000000080658284        0x4 00
 COMMON         0x0000000080658288       0x34 /usr/local/xenon/usr/lib/libxenon.a(dhcp.o)
                0x0000000080658288                dhcp_rx_options_given
                0x0000000080658294                dhcp_rx_options_val

.iplt           0x00000000806582c0        0x0
 .iplt          0x0000000000000000        0x0 /usr/local/xenon/lib/gcc/xenon/4.6.1/../../../../xenon/lib/../lib/crt1.o

.sbss           0x00000000806582bc       0x88
 *(.sbss*)
 .sbss          0x0000000000000000        0x0 /usr/local/xenon/lib/gcc/xenon/4.6.1/../../../../xenon/lib/../lib/crt1.o
 .sbss.stdout_hook
                0x00000000806582bc        0x4 /usr/local/xenon/usr/lib/libxenon.a(newlib.o)
                0x00000000806582bc                stdout_hook
 .sbss          0x00000000806582c0        0x4 /usr/local/xenon/usr/lib/libxenon.a(xenon_syscalls.o)
                0x00000000806582c0                heap_ptr
 .sbss.vm_segfault_handler
                0x00000000806582c4        0x4 /usr/local/xenon/usr/lib/libxenon.a(vm.o)
                0x00000000806582c4                vm_segfault_handler
 .sbss.usb_noisy
                0x00000000806582c8        0x4 /usr/local/xenon/usr/lib/libxenon.a(usbd.o)
                0x00000000806582c8                usb_noisy
 .sbss.usb_initialized
                0x00000000806582cc        0x4 /usr/local/xenon/usr/lib/libxenon.a(usbmain.o)
                0x00000000806582cc                usb_initialized
 .sbss.usb_buscnt
                0x00000000806582d0        0x4 /usr/local/xenon/usr/lib/libxenon.a(usbmain.o)
                0x00000000806582d0                usb_buscnt
 .sbss.try_status
                0x00000000806582d4        0x4 /usr/local/xenon/usr/lib/libxenon.a(tinyehci.o)
                0x00000000806582d4                try_status
 .sbss.unplug_device
                0x00000000806582d8        0x4 /usr/local/xenon/usr/lib/libxenon.a(tinyehci.o)
                0x00000000806582d8                unplug_device
 .sbss.handshake_mode
                0x00000000806582dc        0x4 /usr/local/xenon/usr/lib/libxenon.a(tinyehci.o)
                0x00000000806582dc                handshake_mode
 .sbss.edram_id
                0x00000000806582e0        0x4 /usr/local/xenon/usr/lib/libxenon.a(edram.o)
                0x00000000806582e0                edram_id
 .sbss.edram_rev
                0x00000000806582e4        0x4 /usr/local/xenon/usr/lib/libxenon.a(edram.o)
                0x00000000806582e4                edram_rev
 .sbss.xenos_is_hdmi
                0x00000000806582e8        0x4 /usr/local/xenon/usr/lib/libxenon.a(xenos.o)
                0x00000000806582e8                xenos_is_hdmi
 .sbss.xenos_id
                0x00000000806582ec        0x4 /usr/local/xenon/usr/lib/libxenon.a(xenos.o)
                0x00000000806582ec                xenos_id
 .sbss          0x00000000806582f0        0xc /usr/local/xenon/usr/lib/libxenon.a(network.o)
                0x00000000806582f0                ipaddr
                0x00000000806582f4                netmask
                0x00000000806582f8                gateway
 .sbss          0x00000000806582fc        0x8 /usr/local/xenon/usr/lib/libxenon.a(netif.o)
                0x00000000806582fc                netif_list
                0x0000000080658300                netif_default
 .sbss          0x0000000080658304       0x18 /usr/local/xenon/usr/lib/libxenon.a(tcp.o)
                0x0000000080658304                tcp_active_pcbs
                0x0000000080658308                tcp_ticks
                0x000000008065830c                tcp_listen_pcbs
                0x0000000080658310                tcp_tmp_pcb
                0x0000000080658314                tcp_bound_pcbs
                0x0000000080658318                tcp_tw_pcbs
 .sbss          0x000000008065831c       0x10 /usr/local/xenon/usr/lib/libxenon.a(ip.o)
                0x000000008065831c                current_iphdr_src
                0x0000000080658320                current_netif
                0x0000000080658324                current_iphdr_dest
                0x0000000080658328                current_header
 .sbss          0x000000008065832c        0x4 /usr/local/xenon/usr/lib/libxenon.a(udp.o)
                0x000000008065832c                udp_pcbs
 .sbss          0x0000000080658330        0x4 /usr/local/xenon/usr/lib/libxenon.a(tcp_in.o)
                0x0000000080658330                tcp_input_pcb
 .sbss          0x0000000080658334        0xc /usr/local/xenon/xenon/lib/32/libc.a(lib_a-mallocr.o)
                0x0000000080658334                __malloc_max_total_mem
                0x0000000080658338                __malloc_max_sbrked_mem
                0x000000008065833c                __malloc_top_pad
 .sbss          0x0000000080658340        0x4 /usr/local/xenon/xenon/lib/32/libc.a(lib_a-reent.o)
                0x0000000080658340                errno
                0x0000000080658344                bss_end = .
                0x0000000080658344                heap_begin = .
                0x000000009e000000                . = 0x9e000000
                0x000000009e000000                __libc_stack_end = .
                0x000000009e000000                heap_end = .
                0x00000000a0000000                . = 0xa0000000
OUTPUT(/home/tyler/Desktop/XDash/Dashboard/xenon.elf elf32-powerpc)

.debug_info     0x0000000000000000    0x4cc73
 .debug_info    0x0000000000000000      0x1f9 /usr/local/xenon/lib/gcc/xenon/4.6.1/../../../../xenon/lib/../lib/crt1.o
 .debug_info    0x00000000000001f9      0x43b dashboard.o
 .debug_info    0x0000000000000634       0xbc main.o
 .debug_info    0x00000000000006f0      0x71b VL.o
 .debug_info    0x0000000000000e0b       0xfb /usr/local/xenon/usr/lib/libxenon.a(argv.o)
 .debug_info    0x0000000000000f06      0x5a0 /usr/local/xenon/usr/lib/libxenon.a(console.o)
 .debug_info    0x00000000000014a6      0x2b4 /usr/local/xenon/usr/lib/libxenon.a(input.o)
 .debug_info    0x000000000000175a     0x28d1 /usr/local/xenon/usr/lib/libxenon.a(newlib.o)
 .debug_info    0x000000000000402b      0xe8e /usr/local/xenon/usr/lib/libxenon.a(xenon_syscalls.o)
 .debug_info    0x0000000000004eb9      0x25f /usr/local/xenon/usr/lib/libxenon.a(c_except.o)
 .debug_info    0x0000000000005118      0x3a2 /usr/local/xenon/usr/lib/libxenon.a(vm.o)
 .debug_info    0x00000000000054ba     0x111c /usr/local/xenon/usr/lib/libxenon.a(usbctrl.o)
 .debug_info    0x00000000000065d6     0x1654 /usr/local/xenon/usr/lib/libxenon.a(usbd.o)
 .debug_info    0x0000000000007c2a      0x99f /usr/local/xenon/usr/lib/libxenon.a(usbdevs.o)
 .debug_info    0x00000000000085c9      0xddc /usr/local/xenon/usr/lib/libxenon.a(usbhid.o)
 .debug_info    0x00000000000093a5     0x138b /usr/local/xenon/usr/lib/libxenon.a(usbhub.o)
 .debug_info    0x000000000000a730      0x942 /usr/local/xenon/usr/lib/libxenon.a(usbmain.o)
 .debug_info    0x000000000000b072     0x36a8 /usr/local/xenon/usr/lib/libxenon.a(tinyehci.o)
 .debug_info    0x000000000000e71a      0x59d /usr/local/xenon/usr/lib/libxenon.a(xenon_smc.o)
 .debug_info    0x000000000000ecb7      0xb5a /usr/local/xenon/usr/lib/libxenon.a(xenon_power.o)
 .debug_info    0x000000000000f811      0x114 /usr/local/xenon/usr/lib/libxenon.a(xenon_uart.o)
 .debug_info    0x000000000000f925      0xf3c /usr/local/xenon/usr/lib/libxenon.a(xenon_sfcx.o)
 .debug_info    0x0000000000010861      0x4f5 /usr/local/xenon/usr/lib/libxenon.a(xenon_config.o)
 .debug_info    0x0000000000010d56      0xf1c /usr/local/xenon/usr/lib/libxenon.a(edram.o)
 .debug_info    0x0000000000011c72     0x41a3 /usr/local/xenon/usr/lib/libxenon.a(xe.o)
 .debug_info    0x0000000000015e15      0xda8 /usr/local/xenon/usr/lib/libxenon.a(xenos.o)
 .debug_info    0x0000000000016bbd      0x944 /usr/local/xenon/usr/lib/libxenon.a(xenos_edid.o)
 .debug_info    0x0000000000017501      0xc15 /usr/local/xenon/usr/lib/libxenon.a(enet.o)
 .debug_info    0x0000000000018116      0x965 /usr/local/xenon/usr/lib/libxenon.a(network.o)
 .debug_info    0x0000000000018a7b      0x996 /usr/local/xenon/usr/lib/libxenon.a(xb360.o)
 .debug_info    0x0000000000019411      0x4f3 /usr/local/xenon/usr/lib/libxenon.a(lib_malloc.o)
 .debug_info    0x0000000000019904      0x135 /usr/local/xenon/usr/lib/libxenon.a(io.o)
 .debug_info    0x0000000000019a39      0x1a7 /usr/local/xenon/usr/lib/libxenon.a(time.o)
 .debug_info    0x0000000000019be0      0x7d6 /usr/local/xenon/usr/lib/libxenon.a(dummy.o)
 .debug_info    0x000000000001a3b6     0x1c8f /usr/local/xenon/usr/lib/libxenon.a(ohci.o)
 .debug_info    0x000000000001c045      0xd1a /usr/local/xenon/usr/lib/libxenon.a(usbdebug.o)
 .debug_info    0x000000000001cd5f      0x382 /usr/local/xenon/usr/lib/libxenon.a(usb_os.o)
 .debug_info    0x000000000001d0e1      0x158 /usr/local/xenon/usr/lib/libxenon.a(xenon_gpio.o)
 .debug_info    0x000000000001d239       0xdd /usr/local/xenon/usr/lib/libxenon.a(ucode.o)
 .debug_info    0x000000000001d316       0x8d /usr/local/xenon/usr/lib/libxenon.a(init.o)
 .debug_info    0x000000000001d3a3      0x5ae /usr/local/xenon/usr/lib/libxenon.a(mem.o)
 .debug_info    0x000000000001d951      0xa2e /usr/local/xenon/usr/lib/libxenon.a(dns.o)
 .debug_info    0x000000000001e37f      0x440 /usr/local/xenon/usr/lib/libxenon.a(memp.o)
 .debug_info    0x000000000001e7bf     0x11ee /usr/local/xenon/usr/lib/libxenon.a(netif.o)
 .debug_info    0x000000000001f9ad      0x9c0 /usr/local/xenon/usr/lib/libxenon.a(pbuf.o)
 .debug_info    0x000000000002036d      0x2ae /usr/local/xenon/usr/lib/libxenon.a(stats.o)
 .debug_info    0x000000000002061b     0x1817 /usr/local/xenon/usr/lib/libxenon.a(tcp.o)
 .debug_info    0x0000000000021e32      0x5f9 /usr/local/xenon/usr/lib/libxenon.a(ip_addr.o)
 .debug_info    0x000000000002242b      0xced /usr/local/xenon/usr/lib/libxenon.a(ip.o)
 .debug_info    0x0000000000023118      0xe59 /usr/local/xenon/usr/lib/libxenon.a(ip_frag.o)
 .debug_info    0x0000000000023f71     0x13a7 /usr/local/xenon/usr/lib/libxenon.a(tcp_out.o)
 .debug_info    0x0000000000025318      0xe66 /usr/local/xenon/usr/lib/libxenon.a(udp.o)
 .debug_info    0x000000000002617e     0x12ee /usr/local/xenon/usr/lib/libxenon.a(etharp.o)
 .debug_info    0x000000000002746c     0x162f /usr/local/xenon/usr/lib/libxenon.a(dhcp.o)
 .debug_info    0x0000000000028a9b      0x7ea /usr/local/xenon/usr/lib/libxenon.a(raw.o)
 .debug_info    0x0000000000029285       0x8c /usr/local/xenon/usr/lib/libxenon.a(timers.o)
 .debug_info    0x0000000000029311      0x27f /usr/local/xenon/usr/lib/libxenon.a(lib_queue.o)
 .debug_info    0x0000000000029590     0x1100 /usr/local/xenon/usr/lib/libxenon.a(tcp_in.o)
 .debug_info    0x000000000002a690      0x3e7 /usr/local/xenon/usr/lib/libxenon.a(inet_chksum.o)
 .debug_info    0x000000000002aa77      0x8ae /usr/local/xenon/usr/lib/libxenon.a(icmp.o)
 .debug_info    0x000000000002b325       0x67 /usr/local/xenon/lib/gcc/xenon/4.6.1/32/libgcc.a(crtsavgpr.o)
 .debug_info    0x000000000002b38c       0x68 /usr/local/xenon/lib/gcc/xenon/4.6.1/32/libgcc.a(crtresxgpr.o)
 .debug_info    0x000000000002b3f4     0x3508 /usr/local/xenon/lib/gcc/xenon/4.6.1/32/libgcc.a(unwind-dw2-fde-glibc.o)
 .debug_info    0x000000000002e8fc      0x9e3 /usr/local/xenon/xenon/lib/32/libc.a(lib_a-assert.o)
 .debug_info    0x000000000002f2df      0x974 /usr/local/xenon/xenon/lib/32/libc.a(lib_a-exit.o)
 .debug_info    0x000000000002fc53      0x9cc /usr/local/xenon/xenon/lib/32/libc.a(lib_a-fclose.o)
 .debug_info    0x000000000003061f      0xa41 /usr/local/xenon/xenon/lib/32/libc.a(lib_a-fflush.o)
 .debug_info    0x0000000000031060      0xbe6 /usr/local/xenon/xenon/lib/32/libc.a(lib_a-findfp.o)
 .debug_info    0x0000000000031c46      0xa8e /usr/local/xenon/xenon/lib/32/libc.a(lib_a-fiprintf.o)
 .debug_info    0x00000000000326d4      0xc40 /usr/local/xenon/xenon/lib/32/libc.a(lib_a-freer.o)
 .debug_info    0x0000000000033314      0xb30 /usr/local/xenon/xenon/lib/32/libc.a(lib_a-fstatr.o)
 .debug_info    0x0000000000033e44      0xb32 /usr/local/xenon/xenon/lib/32/libc.a(lib_a-fwalk.o)
 .debug_info    0x0000000000034976      0x966 /usr/local/xenon/xenon/lib/32/libc.a(lib_a-impure.o)
 .debug_info    0x00000000000352dc      0xb45 /usr/local/xenon/xenon/lib/32/libc.a(lib_a-makebuf.o)
 .debug_info    0x0000000000035e21      0x98d /usr/local/xenon/xenon/lib/32/libc.a(lib_a-malign.o)
 .debug_info    0x00000000000367ae      0xa65 /usr/local/xenon/xenon/lib/32/libc.a(lib_a-malignr.o)
 .debug_info    0x0000000000037213      0x9a7 /usr/local/xenon/xenon/lib/32/libc.a(lib_a-malloc.o)
 .debug_info    0x0000000000037bba      0xd6b /usr/local/xenon/xenon/lib/32/libc.a(lib_a-mallocr.o)
 .debug_info    0x0000000000038925      0x10e /usr/local/xenon/xenon/lib/32/libc.a(lib_a-memcmp.o)
 .debug_info    0x0000000000038a33      0x13d /usr/local/xenon/xenon/lib/32/libc.a(lib_a-memcpy.o)
 .debug_info    0x0000000000038b70      0x114 /usr/local/xenon/xenon/lib/32/libc.a(lib_a-memset.o)
 .debug_info    0x0000000000038c84      0xa70 /usr/local/xenon/xenon/lib/32/libc.a(lib_a-printf.o)
 .debug_info    0x00000000000396f4      0x9ac /usr/local/xenon/xenon/lib/32/libc.a(lib_a-putchar.o)
 .debug_info    0x000000000003a0a0      0x9f7 /usr/local/xenon/xenon/lib/32/libc.a(lib_a-putc.o)
 .debug_info    0x000000000003aa97      0xa5d /usr/local/xenon/xenon/lib/32/libc.a(lib_a-puts.o)
 .debug_info    0x000000000003b4f4      0xa60 /usr/local/xenon/xenon/lib/32/libc.a(lib_a-reent.o)
 .debug_info    0x000000000003bf54      0x9ac /usr/local/xenon/xenon/lib/32/libc.a(lib_a-sbrkr.o)
 .debug_info    0x000000000003c900      0xaaf /usr/local/xenon/xenon/lib/32/libc.a(lib_a-sprintf.o)
 .debug_info    0x000000000003d3af      0xae5 /usr/local/xenon/xenon/lib/32/libc.a(lib_a-stdio.o)
 .debug_info    0x000000000003de94       0xe6 /usr/local/xenon/xenon/lib/32/libc.a(lib_a-strcat.o)
 .debug_info    0x000000000003df7a       0xda /usr/local/xenon/xenon/lib/32/libc.a(lib_a-strcmp.o)
 .debug_info    0x000000000003e054      0x10b /usr/local/xenon/xenon/lib/32/libc.a(lib_a-strcpy.o)
 .debug_info    0x000000000003e15f       0xda /usr/local/xenon/xenon/lib/32/libc.a(lib_a-strlen.o)
 .debug_info    0x000000000003e239      0x127 /usr/local/xenon/xenon/lib/32/libc.a(lib_a-strncpy.o)
 .debug_info    0x000000000003e360     0x10d9 /usr/local/xenon/xenon/lib/32/libc.a(lib_a-svfprintf.o)
 .debug_info    0x000000000003f439      0xef7 /usr/local/xenon/xenon/lib/32/libc.a(lib_a-vfiprintf.o)
 .debug_info    0x0000000000040330     0x120e /usr/local/xenon/xenon/lib/32/libc.a(lib_a-vfprintf.o)
 .debug_info    0x000000000004153e      0xa25 /usr/local/xenon/xenon/lib/32/libc.a(lib_a-vprintf.o)
 .debug_info    0x0000000000041f63      0x9e6 /usr/local/xenon/xenon/lib/32/libc.a(lib_a-wbuf.o)
 .debug_info    0x0000000000042949      0x9c7 /usr/local/xenon/xenon/lib/32/libc.a(lib_a-writer.o)
 .debug_info    0x0000000000043310      0x992 /usr/local/xenon/xenon/lib/32/libc.a(lib_a-wsetup.o)
 .debug_info    0x0000000000043ca2      0x9fc /usr/local/xenon/xenon/lib/32/libc.a(lib_a-__call_atexit.o)
 .debug_info    0x000000000004469e      0x98c /usr/local/xenon/xenon/lib/32/libc.a(lib_a-closer.o)
 .debug_info    0x000000000004502a      0xdcf /usr/local/xenon/xenon/lib/32/libc.a(lib_a-dtoa.o)
 .debug_info    0x0000000000045df9      0xab3 /usr/local/xenon/xenon/lib/32/libc.a(lib_a-fvwrite.o)
 .debug_info    0x00000000000468ac      0x98c /usr/local/xenon/xenon/lib/32/libc.a(lib_a-isattyr.o)
 .debug_info    0x0000000000047238      0xbcd /usr/local/xenon/xenon/lib/32/libc.a(lib_a-locale.o)
 .debug_info    0x0000000000047e05      0x9b5 /usr/local/xenon/xenon/lib/32/libc.a(lib_a-lseekr.o)
 .debug_info    0x00000000000487ba      0x126 /usr/local/xenon/xenon/lib/32/libc.a(lib_a-memchr.o)
 .debug_info    0x00000000000488e0      0x13d /usr/local/xenon/xenon/lib/32/libc.a(lib_a-memmove.o)
 .debug_info    0x0000000000048a1d     0x1466 /usr/local/xenon/xenon/lib/32/libc.a(lib_a-mprec.o)
 .debug_info    0x0000000000049e83      0x9c0 /usr/local/xenon/xenon/lib/32/libc.a(lib_a-readr.o)
 .debug_info    0x000000000004a843      0xc08 /usr/local/xenon/xenon/lib/32/libc.a(lib_a-reallocr.o)
 .debug_info    0x000000000004b44b      0x150 /usr/local/xenon/xenon/lib/32/libc.a(lib_a-s_isinfd.o)
 .debug_info    0x000000000004b59b      0x150 /usr/local/xenon/xenon/lib/32/libc.a(lib_a-s_isnand.o)
 .debug_info    0x000000000004b6eb      0xa4e /usr/local/xenon/xenon/lib/32/libc.a(lib_a-callocr.o)
 .debug_info    0x000000000004c139      0x59d /usr/local/xenon/lib/gcc/xenon/4.6.1/32/libgcc.a(_udivdi3.o)
 .debug_info    0x000000000004c6d6      0x59d /usr/local/xenon/lib/gcc/xenon/4.6.1/32/libgcc.a(_umoddi3.o)

.debug_abbrev   0x0000000000000000     0xd7a1
 .debug_abbrev  0x0000000000000000      0x109 /usr/local/xenon/lib/gcc/xenon/4.6.1/../../../../xenon/lib/../lib/crt1.o
 .debug_abbrev  0x0000000000000109      0x1b3 dashboard.o
 .debug_abbrev  0x00000000000002bc       0x73 main.o
 .debug_abbrev  0x000000000000032f      0x11e VL.o
 .debug_abbrev  0x000000000000044d       0x77 /usr/local/xenon/usr/lib/libxenon.a(argv.o)
 .debug_abbrev  0x00000000000004c4      0x20e /usr/local/xenon/usr/lib/libxenon.a(console.o)
 .debug_abbrev  0x00000000000006d2       0xf4 /usr/local/xenon/usr/lib/libxenon.a(input.o)
 .debug_abbrev  0x00000000000007c6      0x45d /usr/local/xenon/usr/lib/libxenon.a(newlib.o)
 .debug_abbrev  0x0000000000000c23      0x2df /usr/local/xenon/usr/lib/libxenon.a(xenon_syscalls.o)
 .debug_abbrev  0x0000000000000f02      0x175 /usr/local/xenon/usr/lib/libxenon.a(c_except.o)
 .debug_abbrev  0x0000000000001077      0x192 /usr/local/xenon/usr/lib/libxenon.a(vm.o)
 .debug_abbrev  0x0000000000001209      0x319 /usr/local/xenon/usr/lib/libxenon.a(usbctrl.o)
 .debug_abbrev  0x0000000000001522      0x2e3 /usr/local/xenon/usr/lib/libxenon.a(usbd.o)
 .debug_abbrev  0x0000000000001805      0x157 /usr/local/xenon/usr/lib/libxenon.a(usbdevs.o)
 .debug_abbrev  0x000000000000195c      0x21f /usr/local/xenon/usr/lib/libxenon.a(usbhid.o)
 .debug_abbrev  0x0000000000001b7b      0x31d /usr/local/xenon/usr/lib/libxenon.a(usbhub.o)
 .debug_abbrev  0x0000000000001e98      0x1f0 /usr/local/xenon/usr/lib/libxenon.a(usbmain.o)
 .debug_abbrev  0x0000000000002088      0x520 /usr/local/xenon/usr/lib/libxenon.a(tinyehci.o)
 .debug_abbrev  0x00000000000025a8      0x1da /usr/local/xenon/usr/lib/libxenon.a(xenon_smc.o)
 .debug_abbrev  0x0000000000002782      0x32f /usr/local/xenon/usr/lib/libxenon.a(xenon_power.o)
 .debug_abbrev  0x0000000000002ab1       0xa7 /usr/local/xenon/usr/lib/libxenon.a(xenon_uart.o)
 .debug_abbrev  0x0000000000002b58      0x34c /usr/local/xenon/usr/lib/libxenon.a(xenon_sfcx.o)
 .debug_abbrev  0x0000000000002ea4      0x172 /usr/local/xenon/usr/lib/libxenon.a(xenon_config.o)
 .debug_abbrev  0x0000000000003016      0x2f3 /usr/local/xenon/usr/lib/libxenon.a(edram.o)
 .debug_abbrev  0x0000000000003309      0x4e1 /usr/local/xenon/usr/lib/libxenon.a(xe.o)
 .debug_abbrev  0x00000000000037ea      0x27f /usr/local/xenon/usr/lib/libxenon.a(xenos.o)
 .debug_abbrev  0x0000000000003a69      0x277 /usr/local/xenon/usr/lib/libxenon.a(xenos_edid.o)
 .debug_abbrev  0x0000000000003ce0      0x336 /usr/local/xenon/usr/lib/libxenon.a(enet.o)
 .debug_abbrev  0x0000000000004016      0x1bb /usr/local/xenon/usr/lib/libxenon.a(network.o)
 .debug_abbrev  0x00000000000041d1      0x2c9 /usr/local/xenon/usr/lib/libxenon.a(xb360.o)
 .debug_abbrev  0x000000000000449a      0x23d /usr/local/xenon/usr/lib/libxenon.a(lib_malloc.o)
 .debug_abbrev  0x00000000000046d7       0xab /usr/local/xenon/usr/lib/libxenon.a(io.o)
 .debug_abbrev  0x0000000000004782       0xf9 /usr/local/xenon/usr/lib/libxenon.a(time.o)
 .debug_abbrev  0x000000000000487b      0x110 /usr/local/xenon/usr/lib/libxenon.a(dummy.o)
 .debug_abbrev  0x000000000000498b      0x30a /usr/local/xenon/usr/lib/libxenon.a(ohci.o)
 .debug_abbrev  0x0000000000004c95      0x247 /usr/local/xenon/usr/lib/libxenon.a(usbdebug.o)
 .debug_abbrev  0x0000000000004edc       0xde /usr/local/xenon/usr/lib/libxenon.a(usb_os.o)
 .debug_abbrev  0x0000000000004fba       0xb3 /usr/local/xenon/usr/lib/libxenon.a(xenon_gpio.o)
 .debug_abbrev  0x000000000000506d       0x67 /usr/local/xenon/usr/lib/libxenon.a(ucode.o)
 .debug_abbrev  0x00000000000050d4       0x41 /usr/local/xenon/usr/lib/libxenon.a(init.o)
 .debug_abbrev  0x0000000000005115      0x1d5 /usr/local/xenon/usr/lib/libxenon.a(mem.o)
 .debug_abbrev  0x00000000000052ea      0x2d6 /usr/local/xenon/usr/lib/libxenon.a(dns.o)
 .debug_abbrev  0x00000000000055c0      0x16f /usr/local/xenon/usr/lib/libxenon.a(memp.o)
 .debug_abbrev  0x000000000000572f      0x2d9 /usr/local/xenon/usr/lib/libxenon.a(netif.o)
 .debug_abbrev  0x0000000000005a08      0x1eb /usr/local/xenon/usr/lib/libxenon.a(pbuf.o)
 .debug_abbrev  0x0000000000005bf3       0xc3 /usr/local/xenon/usr/lib/libxenon.a(stats.o)
 .debug_abbrev  0x0000000000005cb6      0x3ee /usr/local/xenon/usr/lib/libxenon.a(tcp.o)
 .debug_abbrev  0x00000000000060a4      0x1eb /usr/local/xenon/usr/lib/libxenon.a(ip_addr.o)
 .debug_abbrev  0x000000000000628f      0x20b /usr/local/xenon/usr/lib/libxenon.a(ip.o)
 .debug_abbrev  0x000000000000649a      0x35c /usr/local/xenon/usr/lib/libxenon.a(ip_frag.o)
 .debug_abbrev  0x00000000000067f6      0x389 /usr/local/xenon/usr/lib/libxenon.a(tcp_out.o)
 .debug_abbrev  0x0000000000006b7f      0x22b /usr/local/xenon/usr/lib/libxenon.a(udp.o)
 .debug_abbrev  0x0000000000006daa      0x2e5 /usr/local/xenon/usr/lib/libxenon.a(etharp.o)
 .debug_abbrev  0x000000000000708f      0x34f /usr/local/xenon/usr/lib/libxenon.a(dhcp.o)
 .debug_abbrev  0x00000000000073de      0x20a /usr/local/xenon/usr/lib/libxenon.a(raw.o)
 .debug_abbrev  0x00000000000075e8       0x41 /usr/local/xenon/usr/lib/libxenon.a(timers.o)
 .debug_abbrev  0x0000000000007629      0x13b /usr/local/xenon/usr/lib/libxenon.a(lib_queue.o)
 .debug_abbrev  0x0000000000007764      0x2ef /usr/local/xenon/usr/lib/libxenon.a(tcp_in.o)
 .debug_abbrev  0x0000000000007a53      0x144 /usr/local/xenon/usr/lib/libxenon.a(inet_chksum.o)
 .debug_abbrev  0x0000000000007b97      0x210 /usr/local/xenon/usr/lib/libxenon.a(icmp.o)
 .debug_abbrev  0x0000000000007da7       0x14 /usr/local/xenon/lib/gcc/xenon/4.6.1/32/libgcc.a(crtsavgpr.o)
 .debug_abbrev  0x0000000000007dbb       0x14 /usr/local/xenon/lib/gcc/xenon/4.6.1/32/libgcc.a(crtresxgpr.o)
 .debug_abbrev  0x0000000000007dcf      0x436 /usr/local/xenon/lib/gcc/xenon/4.6.1/32/libgcc.a(unwind-dw2-fde-glibc.o)
 .debug_abbrev  0x0000000000008205      0x17d /usr/local/xenon/xenon/lib/32/libc.a(lib_a-assert.o)
 .debug_abbrev  0x0000000000008382      0x17d /usr/local/xenon/xenon/lib/32/libc.a(lib_a-exit.o)
 .debug_abbrev  0x00000000000084ff      0x1b6 /usr/local/xenon/xenon/lib/32/libc.a(lib_a-fclose.o)
 .debug_abbrev  0x00000000000086b5      0x1d5 /usr/local/xenon/xenon/lib/32/libc.a(lib_a-fflush.o)
 .debug_abbrev  0x000000000000888a      0x269 /usr/local/xenon/xenon/lib/32/libc.a(lib_a-findfp.o)
 .debug_abbrev  0x0000000000008af3      0x1ac /usr/local/xenon/xenon/lib/32/libc.a(lib_a-fiprintf.o)
 .debug_abbrev  0x0000000000008c9f      0x1ea /usr/local/xenon/xenon/lib/32/libc.a(lib_a-freer.o)
 .debug_abbrev  0x0000000000008e89      0x19d /usr/local/xenon/xenon/lib/32/libc.a(lib_a-fstatr.o)
 .debug_abbrev  0x0000000000009026      0x20e /usr/local/xenon/xenon/lib/32/libc.a(lib_a-fwalk.o)
 .debug_abbrev  0x0000000000009234      0x166 /usr/local/xenon/xenon/lib/32/libc.a(lib_a-impure.o)
 .debug_abbrev  0x000000000000939a      0x199 /usr/local/xenon/xenon/lib/32/libc.a(lib_a-makebuf.o)
 .debug_abbrev  0x0000000000009533      0x17f /usr/local/xenon/xenon/lib/32/libc.a(lib_a-malign.o)
 .debug_abbrev  0x00000000000096b2      0x199 /usr/local/xenon/xenon/lib/32/libc.a(lib_a-malignr.o)
 .debug_abbrev  0x000000000000984b      0x196 /usr/local/xenon/xenon/lib/32/libc.a(lib_a-malloc.o)
 .debug_abbrev  0x00000000000099e1      0x233 /usr/local/xenon/xenon/lib/32/libc.a(lib_a-mallocr.o)
 .debug_abbrev  0x0000000000009c14       0x8b /usr/local/xenon/xenon/lib/32/libc.a(lib_a-memcmp.o)
 .debug_abbrev  0x0000000000009c9f       0xa8 /usr/local/xenon/xenon/lib/32/libc.a(lib_a-memcpy.o)
 .debug_abbrev  0x0000000000009d47       0x9c /usr/local/xenon/xenon/lib/32/libc.a(lib_a-memset.o)
 .debug_abbrev  0x0000000000009de3      0x1bb /usr/local/xenon/xenon/lib/32/libc.a(lib_a-printf.o)
 .debug_abbrev  0x0000000000009f9e      0x198 /usr/local/xenon/xenon/lib/32/libc.a(lib_a-putchar.o)
 .debug_abbrev  0x000000000000a136      0x1a7 /usr/local/xenon/xenon/lib/32/libc.a(lib_a-putc.o)
 .debug_abbrev  0x000000000000a2dd      0x1bb /usr/local/xenon/xenon/lib/32/libc.a(lib_a-puts.o)
 .debug_abbrev  0x000000000000a498      0x1f3 /usr/local/xenon/xenon/lib/32/libc.a(lib_a-reent.o)
 .debug_abbrev  0x000000000000a68b      0x1b0 /usr/local/xenon/xenon/lib/32/libc.a(lib_a-sbrkr.o)
 .debug_abbrev  0x000000000000a83b      0x1ac /usr/local/xenon/xenon/lib/32/libc.a(lib_a-sprintf.o)
 .debug_abbrev  0x000000000000a9e7      0x1b2 /usr/local/xenon/xenon/lib/32/libc.a(lib_a-stdio.o)
 .debug_abbrev  0x000000000000ab99       0x87 /usr/local/xenon/xenon/lib/32/libc.a(lib_a-strcat.o)
 .debug_abbrev  0x000000000000ac20       0x71 /usr/local/xenon/xenon/lib/32/libc.a(lib_a-strcmp.o)
 .debug_abbrev  0x000000000000ac91       0x8f /usr/local/xenon/xenon/lib/32/libc.a(lib_a-strcpy.o)
 .debug_abbrev  0x000000000000ad20       0x7e /usr/local/xenon/xenon/lib/32/libc.a(lib_a-strlen.o)
 .debug_abbrev  0x000000000000ad9e       0x8d /usr/local/xenon/xenon/lib/32/libc.a(lib_a-strncpy.o)
 .debug_abbrev  0x000000000000ae2b      0x333 /usr/local/xenon/xenon/lib/32/libc.a(lib_a-svfprintf.o)
 .debug_abbrev  0x000000000000b15e      0x2d1 /usr/local/xenon/xenon/lib/32/libc.a(lib_a-vfiprintf.o)
 .debug_abbrev  0x000000000000b42f      0x349 /usr/local/xenon/xenon/lib/32/libc.a(lib_a-vfprintf.o)
 .debug_abbrev  0x000000000000b778      0x198 /usr/local/xenon/xenon/lib/32/libc.a(lib_a-vprintf.o)
 .debug_abbrev  0x000000000000b910      0x1a7 /usr/local/xenon/xenon/lib/32/libc.a(lib_a-wbuf.o)
 .debug_abbrev  0x000000000000bab7      0x193 /usr/local/xenon/xenon/lib/32/libc.a(lib_a-writer.o)
 .debug_abbrev  0x000000000000bc4a      0x17f /usr/local/xenon/xenon/lib/32/libc.a(lib_a-wsetup.o)
 .debug_abbrev  0x000000000000bdc9      0x1bc /usr/local/xenon/xenon/lib/32/libc.a(lib_a-__call_atexit.o)
 .debug_abbrev  0x000000000000bf85      0x18e /usr/local/xenon/xenon/lib/32/libc.a(lib_a-closer.o)
 .debug_abbrev  0x000000000000c113      0x21a /usr/local/xenon/xenon/lib/32/libc.a(lib_a-dtoa.o)
 .debug_abbrev  0x000000000000c32d      0x1a5 /usr/local/xenon/xenon/lib/32/libc.a(lib_a-fvwrite.o)
 .debug_abbrev  0x000000000000c4d2      0x18e /usr/local/xenon/xenon/lib/32/libc.a(lib_a-isattyr.o)
 .debug_abbrev  0x000000000000c660      0x1f8 /usr/local/xenon/xenon/lib/32/libc.a(lib_a-locale.o)
 .debug_abbrev  0x000000000000c858      0x19d /usr/local/xenon/xenon/lib/32/libc.a(lib_a-lseekr.o)
 .debug_abbrev  0x000000000000c9f5       0xb7 /usr/local/xenon/xenon/lib/32/libc.a(lib_a-memchr.o)
 .debug_abbrev  0x000000000000caac       0xa8 /usr/local/xenon/xenon/lib/32/libc.a(lib_a-memmove.o)
 .debug_abbrev  0x000000000000cb54      0x2c6 /usr/local/xenon/xenon/lib/32/libc.a(lib_a-mprec.o)
 .debug_abbrev  0x000000000000ce1a      0x18e /usr/local/xenon/xenon/lib/32/libc.a(lib_a-readr.o)
 .debug_abbrev  0x000000000000cfa8      0x1db /usr/local/xenon/xenon/lib/32/libc.a(lib_a-reallocr.o)
 .debug_abbrev  0x000000000000d183       0xd6 /usr/local/xenon/xenon/lib/32/libc.a(lib_a-s_isinfd.o)
 .debug_abbrev  0x000000000000d259       0xd6 /usr/local/xenon/xenon/lib/32/libc.a(lib_a-s_isnand.o)
 .debug_abbrev  0x000000000000d32f      0x1ba /usr/local/xenon/xenon/lib/32/libc.a(lib_a-callocr.o)
 .debug_abbrev  0x000000000000d4e9      0x15a /usr/local/xenon/lib/gcc/xenon/4.6.1/32/libgcc.a(_udivdi3.o)
 .debug_abbrev  0x000000000000d643      0x15e /usr/local/xenon/lib/gcc/xenon/4.6.1/32/libgcc.a(_umoddi3.o)

.debug_loc      0x0000000000000000    0x297f4
 .debug_loc     0x0000000000000000       0x7f /usr/local/xenon/lib/gcc/xenon/4.6.1/../../../../xenon/lib/../lib/crt1.o
 .debug_loc     0x000000000000007f      0x120 dashboard.o
 .debug_loc     0x000000000000019f       0x2c main.o
 .debug_loc     0x00000000000001cb       0x2c VL.o
 .debug_loc     0x00000000000001f7      0x295 /usr/local/xenon/usr/lib/libxenon.a(console.o)
 .debug_loc     0x000000000000048c      0x11a /usr/local/xenon/usr/lib/libxenon.a(input.o)
 .debug_loc     0x00000000000005a6     0x1c3e /usr/local/xenon/usr/lib/libxenon.a(newlib.o)
 .debug_loc     0x00000000000021e4      0x2a3 /usr/local/xenon/usr/lib/libxenon.a(xenon_syscalls.o)
 .debug_loc     0x0000000000002487      0x11e /usr/local/xenon/usr/lib/libxenon.a(c_except.o)
 .debug_loc     0x00000000000025a5      0x259 /usr/local/xenon/usr/lib/libxenon.a(vm.o)
 .debug_loc     0x00000000000027fe      0x815 /usr/local/xenon/usr/lib/libxenon.a(usbctrl.o)
 .debug_loc     0x0000000000003013     0x1034 /usr/local/xenon/usr/lib/libxenon.a(usbd.o)
 .debug_loc     0x0000000000004047       0xdc /usr/local/xenon/usr/lib/libxenon.a(usbdevs.o)
 .debug_loc     0x0000000000004123      0x338 /usr/local/xenon/usr/lib/libxenon.a(usbhid.o)
 .debug_loc     0x000000000000445b      0x809 /usr/local/xenon/usr/lib/libxenon.a(usbhub.o)
 .debug_loc     0x0000000000004c64      0x10c /usr/local/xenon/usr/lib/libxenon.a(usbmain.o)
 .debug_loc     0x0000000000004d70     0x317a /usr/local/xenon/usr/lib/libxenon.a(tinyehci.o)
 .debug_loc     0x0000000000007eea      0x549 /usr/local/xenon/usr/lib/libxenon.a(xenon_smc.o)
 .debug_loc     0x0000000000008433      0x322 /usr/local/xenon/usr/lib/libxenon.a(xenon_power.o)
 .debug_loc     0x0000000000008755       0xb0 /usr/local/xenon/usr/lib/libxenon.a(xenon_uart.o)
 .debug_loc     0x0000000000008805      0x99f /usr/local/xenon/usr/lib/libxenon.a(xenon_sfcx.o)
 .debug_loc     0x00000000000091a4      0x106 /usr/local/xenon/usr/lib/libxenon.a(xenon_config.o)
 .debug_loc     0x00000000000092aa      0x96d /usr/local/xenon/usr/lib/libxenon.a(edram.o)
 .debug_loc     0x0000000000009c17     0x3614 /usr/local/xenon/usr/lib/libxenon.a(xe.o)
 .debug_loc     0x000000000000d22b      0x6ac /usr/local/xenon/usr/lib/libxenon.a(xenos.o)
 .debug_loc     0x000000000000d8d7      0x4cf /usr/local/xenon/usr/lib/libxenon.a(xenos_edid.o)
 .debug_loc     0x000000000000dda6      0x4b4 /usr/local/xenon/usr/lib/libxenon.a(enet.o)
 .debug_loc     0x000000000000e25a      0x160 /usr/local/xenon/usr/lib/libxenon.a(network.o)
 .debug_loc     0x000000000000e3ba      0x6be /usr/local/xenon/usr/lib/libxenon.a(xb360.o)
 .debug_loc     0x000000000000ea78      0x2fa /usr/local/xenon/usr/lib/libxenon.a(lib_malloc.o)
 .debug_loc     0x000000000000ed72       0x26 /usr/local/xenon/usr/lib/libxenon.a(io.o)
 .debug_loc     0x000000000000ed98       0x85 /usr/local/xenon/usr/lib/libxenon.a(time.o)
 .debug_loc     0x000000000000ee1d       0x26 /usr/local/xenon/usr/lib/libxenon.a(dummy.o)
 .debug_loc     0x000000000000ee43     0x12d5 /usr/local/xenon/usr/lib/libxenon.a(ohci.o)
 .debug_loc     0x0000000000010118      0x425 /usr/local/xenon/usr/lib/libxenon.a(usbdebug.o)
 .debug_loc     0x000000000001053d      0x382 /usr/local/xenon/usr/lib/libxenon.a(usb_os.o)
 .debug_loc     0x00000000000108bf      0x14f /usr/local/xenon/usr/lib/libxenon.a(xenon_gpio.o)
 .debug_loc     0x0000000000010a0e       0x2c /usr/local/xenon/usr/lib/libxenon.a(init.o)
 .debug_loc     0x0000000000010a3a      0x451 /usr/local/xenon/usr/lib/libxenon.a(mem.o)
 .debug_loc     0x0000000000010e8b      0x61a /usr/local/xenon/usr/lib/libxenon.a(dns.o)
 .debug_loc     0x00000000000114a5      0x152 /usr/local/xenon/usr/lib/libxenon.a(memp.o)
 .debug_loc     0x00000000000115f7      0x3b7 /usr/local/xenon/usr/lib/libxenon.a(netif.o)
 .debug_loc     0x00000000000119ae      0xffb /usr/local/xenon/usr/lib/libxenon.a(pbuf.o)
 .debug_loc     0x00000000000129a9      0xc10 /usr/local/xenon/usr/lib/libxenon.a(tcp.o)
 .debug_loc     0x00000000000135b9      0x3b0 /usr/local/xenon/usr/lib/libxenon.a(ip_addr.o)
 .debug_loc     0x0000000000013969      0x3db /usr/local/xenon/usr/lib/libxenon.a(ip.o)
 .debug_loc     0x0000000000013d44      0xadd /usr/local/xenon/usr/lib/libxenon.a(ip_frag.o)
 .debug_loc     0x0000000000014821      0xd56 /usr/local/xenon/usr/lib/libxenon.a(tcp_out.o)
 .debug_loc     0x0000000000015577      0x5ed /usr/local/xenon/usr/lib/libxenon.a(udp.o)
 .debug_loc     0x0000000000015b64      0x9f7 /usr/local/xenon/usr/lib/libxenon.a(etharp.o)
 .debug_loc     0x000000000001655b     0x10f1 /usr/local/xenon/usr/lib/libxenon.a(dhcp.o)
 .debug_loc     0x000000000001764c      0x326 /usr/local/xenon/usr/lib/libxenon.a(raw.o)
 .debug_loc     0x0000000000017972      0x192 /usr/local/xenon/usr/lib/libxenon.a(lib_queue.o)
 .debug_loc     0x0000000000017b04      0x49c /usr/local/xenon/usr/lib/libxenon.a(tcp_in.o)
 .debug_loc     0x0000000000017fa0      0x641 /usr/local/xenon/usr/lib/libxenon.a(inet_chksum.o)
 .debug_loc     0x00000000000185e1      0x22f /usr/local/xenon/usr/lib/libxenon.a(icmp.o)
 .debug_loc     0x0000000000018810     0x1f66 /usr/local/xenon/lib/gcc/xenon/4.6.1/32/libgcc.a(unwind-dw2-fde-glibc.o)
 .debug_loc     0x000000000001a776      0x11d /usr/local/xenon/xenon/lib/32/libc.a(lib_a-assert.o)
 .debug_loc     0x000000000001a893       0x3e /usr/local/xenon/xenon/lib/32/libc.a(lib_a-exit.o)
 .debug_loc     0x000000000001a8d1      0x12b /usr/local/xenon/xenon/lib/32/libc.a(lib_a-fclose.o)
 .debug_loc     0x000000000001a9fc      0x241 /usr/local/xenon/xenon/lib/32/libc.a(lib_a-fflush.o)
 .debug_loc     0x000000000001ac3d      0x321 /usr/local/xenon/xenon/lib/32/libc.a(lib_a-findfp.o)
 .debug_loc     0x000000000001af5e       0xe5 /usr/local/xenon/xenon/lib/32/libc.a(lib_a-fiprintf.o)
 .debug_loc     0x000000000001b043      0x3e7 /usr/local/xenon/xenon/lib/32/libc.a(lib_a-freer.o)
 .debug_loc     0x000000000001b42a       0x9e /usr/local/xenon/xenon/lib/32/libc.a(lib_a-fstatr.o)
 .debug_loc     0x000000000001b4c8      0x29c /usr/local/xenon/xenon/lib/32/libc.a(lib_a-fwalk.o)
 .debug_loc     0x000000000001b764      0x19f /usr/local/xenon/xenon/lib/32/libc.a(lib_a-makebuf.o)
 .debug_loc     0x000000000001b903       0x68 /usr/local/xenon/xenon/lib/32/libc.a(lib_a-malign.o)
 .debug_loc     0x000000000001b96b      0x240 /usr/local/xenon/xenon/lib/32/libc.a(lib_a-malignr.o)
 .debug_loc     0x000000000001bbab       0x94 /usr/local/xenon/xenon/lib/32/libc.a(lib_a-malloc.o)
 .debug_loc     0x000000000001bc3f      0xa48 /usr/local/xenon/xenon/lib/32/libc.a(lib_a-mallocr.o)
 .debug_loc     0x000000000001c687       0xe4 /usr/local/xenon/xenon/lib/32/libc.a(lib_a-memcmp.o)
 .debug_loc     0x000000000001c76b      0x1c3 /usr/local/xenon/xenon/lib/32/libc.a(lib_a-memcpy.o)
 .debug_loc     0x000000000001c92e      0x1a6 /usr/local/xenon/xenon/lib/32/libc.a(lib_a-memset.o)
 .debug_loc     0x000000000001cad4       0xbd /usr/local/xenon/xenon/lib/32/libc.a(lib_a-printf.o)
 .debug_loc     0x000000000001cb91       0x9c /usr/local/xenon/xenon/lib/32/libc.a(lib_a-putchar.o)
 .debug_loc     0x000000000001cc2d      0x1ca /usr/local/xenon/xenon/lib/32/libc.a(lib_a-putc.o)
 .debug_loc     0x000000000001cdf7       0xf5 /usr/local/xenon/xenon/lib/32/libc.a(lib_a-puts.o)
 .debug_loc     0x000000000001ceec      0x226 /usr/local/xenon/xenon/lib/32/libc.a(lib_a-reent.o)
 .debug_loc     0x000000000001d112       0x80 /usr/local/xenon/xenon/lib/32/libc.a(lib_a-sbrkr.o)
 .debug_loc     0x000000000001d192      0x115 /usr/local/xenon/xenon/lib/32/libc.a(lib_a-sprintf.o)
 .debug_loc     0x000000000001d2a7      0x29c /usr/local/xenon/xenon/lib/32/libc.a(lib_a-stdio.o)
 .debug_loc     0x000000000001d543       0xa4 /usr/local/xenon/xenon/lib/32/libc.a(lib_a-strcat.o)
 .debug_loc     0x000000000001d5e7       0xec /usr/local/xenon/xenon/lib/32/libc.a(lib_a-strcmp.o)
 .debug_loc     0x000000000001d6d3       0xb9 /usr/local/xenon/xenon/lib/32/libc.a(lib_a-strcpy.o)
 .debug_loc     0x000000000001d78c       0xd6 /usr/local/xenon/xenon/lib/32/libc.a(lib_a-strlen.o)
 .debug_loc     0x000000000001d862      0x104 /usr/local/xenon/xenon/lib/32/libc.a(lib_a-strncpy.o)
 .debug_loc     0x000000000001d966     0x2149 /usr/local/xenon/xenon/lib/32/libc.a(lib_a-svfprintf.o)
 .debug_loc     0x000000000001faaf     0x1038 /usr/local/xenon/xenon/lib/32/libc.a(lib_a-vfiprintf.o)
 .debug_loc     0x0000000000020ae7     0x209f /usr/local/xenon/xenon/lib/32/libc.a(lib_a-vfprintf.o)
 .debug_loc     0x0000000000022b86       0xe3 /usr/local/xenon/xenon/lib/32/libc.a(lib_a-vprintf.o)
 .debug_loc     0x0000000000022c69      0x171 /usr/local/xenon/xenon/lib/32/libc.a(lib_a-wbuf.o)
 .debug_loc     0x0000000000022dda       0xbc /usr/local/xenon/xenon/lib/32/libc.a(lib_a-writer.o)
 .debug_loc     0x0000000000022e96       0x8a /usr/local/xenon/xenon/lib/32/libc.a(lib_a-wsetup.o)
 .debug_loc     0x0000000000022f20      0x1d7 /usr/local/xenon/xenon/lib/32/libc.a(lib_a-__call_atexit.o)
 .debug_loc     0x00000000000230f7       0x80 /usr/local/xenon/xenon/lib/32/libc.a(lib_a-closer.o)
 .debug_loc     0x0000000000023177     0x1f04 /usr/local/xenon/xenon/lib/32/libc.a(lib_a-dtoa.o)
 .debug_loc     0x000000000002507b      0x54f /usr/local/xenon/xenon/lib/32/libc.a(lib_a-fvwrite.o)
 .debug_loc     0x00000000000255ca       0x80 /usr/local/xenon/xenon/lib/32/libc.a(lib_a-isattyr.o)
 .debug_loc     0x000000000002564a      0x1b2 /usr/local/xenon/xenon/lib/32/libc.a(lib_a-locale.o)
 .debug_loc     0x00000000000257fc       0xbc /usr/local/xenon/xenon/lib/32/libc.a(lib_a-lseekr.o)
 .debug_loc     0x00000000000258b8      0x157 /usr/local/xenon/xenon/lib/32/libc.a(lib_a-memchr.o)
 .debug_loc     0x0000000000025a0f      0x28a /usr/local/xenon/xenon/lib/32/libc.a(lib_a-memmove.o)
 .debug_loc     0x0000000000025c99     0x1a81 /usr/local/xenon/xenon/lib/32/libc.a(lib_a-mprec.o)
 .debug_loc     0x000000000002771a       0xbc /usr/local/xenon/xenon/lib/32/libc.a(lib_a-readr.o)
 .debug_loc     0x00000000000277d6      0xca9 /usr/local/xenon/xenon/lib/32/libc.a(lib_a-reallocr.o)
 .debug_loc     0x000000000002847f       0x60 /usr/local/xenon/xenon/lib/32/libc.a(lib_a-s_isinfd.o)
 .debug_loc     0x00000000000284df       0x65 /usr/local/xenon/xenon/lib/32/libc.a(lib_a-s_isnand.o)
 .debug_loc     0x0000000000028544      0x1c7 /usr/local/xenon/xenon/lib/32/libc.a(lib_a-callocr.o)
 .debug_loc     0x000000000002870b      0x805 /usr/local/xenon/lib/gcc/xenon/4.6.1/32/libgcc.a(_udivdi3.o)
 .debug_loc     0x0000000000028f10      0x8e4 /usr/local/xenon/lib/gcc/xenon/4.6.1/32/libgcc.a(_umoddi3.o)

.debug_aranges  0x0000000000000000     0x2340
 .debug_aranges
                0x0000000000000000       0x30 /usr/local/xenon/lib/gcc/xenon/4.6.1/../../../../xenon/lib/../lib/crt1.o
 .debug_aranges
                0x0000000000000030       0x38 dashboard.o
 .debug_aranges
                0x0000000000000068       0x20 main.o
 .debug_aranges
                0x0000000000000088       0x20 VL.o
 .debug_aranges
                0x00000000000000a8       0x20 /usr/local/xenon/usr/lib/libxenon.a(argv.o)
 .debug_aranges
                0x00000000000000c8       0x68 /usr/local/xenon/usr/lib/libxenon.a(console.o)
 .debug_aranges
                0x0000000000000130       0x30 /usr/local/xenon/usr/lib/libxenon.a(input.o)
 .debug_aranges
                0x0000000000000160      0x218 /usr/local/xenon/usr/lib/libxenon.a(newlib.o)
 .debug_aranges
                0x0000000000000378       0x50 /usr/local/xenon/usr/lib/libxenon.a(xenon_syscalls.o)
 .debug_aranges
                0x00000000000003c8       0x28 /usr/local/xenon/usr/lib/libxenon.a(c_except.o)
 .debug_aranges
                0x00000000000003f0       0x40 /usr/local/xenon/usr/lib/libxenon.a(vm.o)
 .debug_aranges
                0x0000000000000430       0x58 /usr/local/xenon/usr/lib/libxenon.a(usbctrl.o)
 .debug_aranges
                0x0000000000000488      0x110 /usr/local/xenon/usr/lib/libxenon.a(usbd.o)
 .debug_aranges
                0x0000000000000598       0x20 /usr/local/xenon/usr/lib/libxenon.a(usbdevs.o)
 .debug_aranges
                0x00000000000005b8       0x38 /usr/local/xenon/usr/lib/libxenon.a(usbhid.o)
 .debug_aranges
                0x00000000000005f0       0x78 /usr/local/xenon/usr/lib/libxenon.a(usbhub.o)
 .debug_aranges
                0x0000000000000668       0x38 /usr/local/xenon/usr/lib/libxenon.a(usbmain.o)
 .debug_aranges
                0x00000000000006a0      0x1d8 /usr/local/xenon/usr/lib/libxenon.a(tinyehci.o)
 .debug_aranges
                0x0000000000000878       0xb0 /usr/local/xenon/usr/lib/libxenon.a(xenon_smc.o)
 .debug_aranges
                0x0000000000000928       0x78 /usr/local/xenon/usr/lib/libxenon.a(xenon_power.o)
 .debug_aranges
                0x00000000000009a0       0x38 /usr/local/xenon/usr/lib/libxenon.a(xenon_uart.o)
 .debug_aranges
                0x00000000000009d8       0xd8 /usr/local/xenon/usr/lib/libxenon.a(xenon_sfcx.o)
 .debug_aranges
                0x0000000000000ab0       0x38 /usr/local/xenon/usr/lib/libxenon.a(xenon_config.o)
 .debug_aranges
                0x0000000000000ae8       0x98 /usr/local/xenon/usr/lib/libxenon.a(edram.o)
 .debug_aranges
                0x0000000000000b80      0x468 /usr/local/xenon/usr/lib/libxenon.a(xe.o)
 .debug_aranges
                0x0000000000000fe8       0x80 /usr/local/xenon/usr/lib/libxenon.a(xenos.o)
 .debug_aranges
                0x0000000000001068       0x38 /usr/local/xenon/usr/lib/libxenon.a(xenos_edid.o)
 .debug_aranges
                0x00000000000010a0       0x40 /usr/local/xenon/usr/lib/libxenon.a(enet.o)
 .debug_aranges
                0x00000000000010e0       0x38 /usr/local/xenon/usr/lib/libxenon.a(network.o)
 .debug_aranges
                0x0000000000001118       0x90 /usr/local/xenon/usr/lib/libxenon.a(xb360.o)
 .debug_aranges
                0x00000000000011a8       0x58 /usr/local/xenon/usr/lib/libxenon.a(lib_malloc.o)
 .debug_aranges
                0x0000000000001200       0x38 /usr/local/xenon/usr/lib/libxenon.a(io.o)
 .debug_aranges
                0x0000000000001238       0x38 /usr/local/xenon/usr/lib/libxenon.a(time.o)
 .debug_aranges
                0x0000000000001270       0x28 /usr/local/xenon/usr/lib/libxenon.a(dummy.o)
 .debug_aranges
                0x0000000000001298       0x98 /usr/local/xenon/usr/lib/libxenon.a(ohci.o)
 .debug_aranges
                0x0000000000001330       0x48 /usr/local/xenon/usr/lib/libxenon.a(usbdebug.o)
 .debug_aranges
                0x0000000000001378       0x78 /usr/local/xenon/usr/lib/libxenon.a(usb_os.o)
 .debug_aranges
                0x00000000000013f0       0x30 /usr/local/xenon/usr/lib/libxenon.a(xenon_gpio.o)
 .debug_aranges
                0x0000000000001420       0x20 /usr/local/xenon/usr/lib/libxenon.a(init.o)
 .debug_aranges
                0x0000000000001440       0x40 /usr/local/xenon/usr/lib/libxenon.a(mem.o)
 .debug_aranges
                0x0000000000001480       0x60 /usr/local/xenon/usr/lib/libxenon.a(dns.o)
 .debug_aranges
                0x00000000000014e0       0x30 /usr/local/xenon/usr/lib/libxenon.a(memp.o)
 .debug_aranges
                0x0000000000001510       0x90 /usr/local/xenon/usr/lib/libxenon.a(netif.o)
 .debug_aranges
                0x00000000000015a0       0xa8 /usr/local/xenon/usr/lib/libxenon.a(pbuf.o)
 .debug_aranges
                0x0000000000001648       0x20 /usr/local/xenon/usr/lib/libxenon.a(stats.o)
 .debug_aranges
                0x0000000000001668      0x120 /usr/local/xenon/usr/lib/libxenon.a(tcp.o)
 .debug_aranges
                0x0000000000001788       0x48 /usr/local/xenon/usr/lib/libxenon.a(ip_addr.o)
 .debug_aranges
                0x00000000000017d0       0x38 /usr/local/xenon/usr/lib/libxenon.a(ip.o)
 .debug_aranges
                0x0000000000001808       0x58 /usr/local/xenon/usr/lib/libxenon.a(ip_frag.o)
 .debug_aranges
                0x0000000000001860       0x88 /usr/local/xenon/usr/lib/libxenon.a(tcp_out.o)
 .debug_aranges
                0x00000000000018e8       0x68 /usr/local/xenon/usr/lib/libxenon.a(udp.o)
 .debug_aranges
                0x0000000000001950       0x78 /usr/local/xenon/usr/lib/libxenon.a(etharp.o)
 .debug_aranges
                0x00000000000019c8       0xe8 /usr/local/xenon/usr/lib/libxenon.a(dhcp.o)
 .debug_aranges
                0x0000000000001ab0       0x58 /usr/local/xenon/usr/lib/libxenon.a(raw.o)
 .debug_aranges
                0x0000000000001b08       0x20 /usr/local/xenon/usr/lib/libxenon.a(timers.o)
 .debug_aranges
                0x0000000000001b28       0x48 /usr/local/xenon/usr/lib/libxenon.a(lib_queue.o)
 .debug_aranges
                0x0000000000001b70       0x38 /usr/local/xenon/usr/lib/libxenon.a(tcp_in.o)
 .debug_aranges
                0x0000000000001ba8       0x40 /usr/local/xenon/usr/lib/libxenon.a(inet_chksum.o)
 .debug_aranges
                0x0000000000001be8       0x38 /usr/local/xenon/usr/lib/libxenon.a(icmp.o)
 .debug_aranges
                0x0000000000001c20       0x20 /usr/local/xenon/lib/gcc/xenon/4.6.1/32/libgcc.a(crtsavgpr.o)
 .debug_aranges
                0x0000000000001c40       0x20 /usr/local/xenon/lib/gcc/xenon/4.6.1/32/libgcc.a(crtresxgpr.o)
 .debug_aranges
                0x0000000000001c60       0x20 /usr/local/xenon/lib/gcc/xenon/4.6.1/32/libgcc.a(unwind-dw2-fde-glibc.o)
 .debug_aranges
                0x0000000000001c80       0x20 /usr/local/xenon/xenon/lib/32/libc.a(lib_a-assert.o)
 .debug_aranges
                0x0000000000001ca0       0x20 /usr/local/xenon/xenon/lib/32/libc.a(lib_a-exit.o)
 .debug_aranges
                0x0000000000001cc0       0x20 /usr/local/xenon/xenon/lib/32/libc.a(lib_a-fclose.o)
 .debug_aranges
                0x0000000000001ce0       0x20 /usr/local/xenon/xenon/lib/32/libc.a(lib_a-fflush.o)
 .debug_aranges
                0x0000000000001d00       0x20 /usr/local/xenon/xenon/lib/32/libc.a(lib_a-findfp.o)
 .debug_aranges
                0x0000000000001d20       0x20 /usr/local/xenon/xenon/lib/32/libc.a(lib_a-fiprintf.o)
 .debug_aranges
                0x0000000000001d40       0x20 /usr/local/xenon/xenon/lib/32/libc.a(lib_a-freer.o)
 .debug_aranges
                0x0000000000001d60       0x20 /usr/local/xenon/xenon/lib/32/libc.a(lib_a-fstatr.o)
 .debug_aranges
                0x0000000000001d80       0x20 /usr/local/xenon/xenon/lib/32/libc.a(lib_a-fwalk.o)
 .debug_aranges
                0x0000000000001da0       0x20 /usr/local/xenon/xenon/lib/32/libc.a(lib_a-makebuf.o)
 .debug_aranges
                0x0000000000001dc0       0x20 /usr/local/xenon/xenon/lib/32/libc.a(lib_a-malign.o)
 .debug_aranges
                0x0000000000001de0       0x20 /usr/local/xenon/xenon/lib/32/libc.a(lib_a-malignr.o)
 .debug_aranges
                0x0000000000001e00       0x20 /usr/local/xenon/xenon/lib/32/libc.a(lib_a-malloc.o)
 .debug_aranges
                0x0000000000001e20       0x20 /usr/local/xenon/xenon/lib/32/libc.a(lib_a-mallocr.o)
 .debug_aranges
                0x0000000000001e40       0x20 /usr/local/xenon/xenon/lib/32/libc.a(lib_a-memcmp.o)
 .debug_aranges
                0x0000000000001e60       0x20 /usr/local/xenon/xenon/lib/32/libc.a(lib_a-memcpy.o)
 .debug_aranges
                0x0000000000001e80       0x20 /usr/local/xenon/xenon/lib/32/libc.a(lib_a-memset.o)
 .debug_aranges
                0x0000000000001ea0       0x20 /usr/local/xenon/xenon/lib/32/libc.a(lib_a-printf.o)
 .debug_aranges
                0x0000000000001ec0       0x20 /usr/local/xenon/xenon/lib/32/libc.a(lib_a-putchar.o)
 .debug_aranges
                0x0000000000001ee0       0x20 /usr/local/xenon/xenon/lib/32/libc.a(lib_a-putc.o)
 .debug_aranges
                0x0000000000001f00       0x20 /usr/local/xenon/xenon/lib/32/libc.a(lib_a-puts.o)
 .debug_aranges
                0x0000000000001f20       0x20 /usr/local/xenon/xenon/lib/32/libc.a(lib_a-reent.o)
 .debug_aranges
                0x0000000000001f40       0x20 /usr/local/xenon/xenon/lib/32/libc.a(lib_a-sbrkr.o)
 .debug_aranges
                0x0000000000001f60       0x20 /usr/local/xenon/xenon/lib/32/libc.a(lib_a-sprintf.o)
 .debug_aranges
                0x0000000000001f80       0x20 /usr/local/xenon/xenon/lib/32/libc.a(lib_a-stdio.o)
 .debug_aranges
                0x0000000000001fa0       0x20 /usr/local/xenon/xenon/lib/32/libc.a(lib_a-strcat.o)
 .debug_aranges
                0x0000000000001fc0       0x20 /usr/local/xenon/xenon/lib/32/libc.a(lib_a-strcmp.o)
 .debug_aranges
                0x0000000000001fe0       0x20 /usr/local/xenon/xenon/lib/32/libc.a(lib_a-strcpy.o)
 .debug_aranges
                0x0000000000002000       0x20 /usr/local/xenon/xenon/lib/32/libc.a(lib_a-strlen.o)
 .debug_aranges
                0x0000000000002020       0x20 /usr/local/xenon/xenon/lib/32/libc.a(lib_a-strncpy.o)
 .debug_aranges
                0x0000000000002040       0x20 /usr/local/xenon/xenon/lib/32/libc.a(lib_a-svfprintf.o)
 .debug_aranges
                0x0000000000002060       0x20 /usr/local/xenon/xenon/lib/32/libc.a(lib_a-vfiprintf.o)
 .debug_aranges
                0x0000000000002080       0x20 /usr/local/xenon/xenon/lib/32/libc.a(lib_a-vfprintf.o)
 .debug_aranges
                0x00000000000020a0       0x20 /usr/local/xenon/xenon/lib/32/libc.a(lib_a-vprintf.o)
 .debug_aranges
                0x00000000000020c0       0x20 /usr/local/xenon/xenon/lib/32/libc.a(lib_a-wbuf.o)
 .debug_aranges
                0x00000000000020e0       0x20 /usr/local/xenon/xenon/lib/32/libc.a(lib_a-writer.o)
 .debug_aranges
                0x0000000000002100       0x20 /usr/local/xenon/xenon/lib/32/libc.a(lib_a-wsetup.o)
 .debug_aranges
                0x0000000000002120       0x20 /usr/local/xenon/xenon/lib/32/libc.a(lib_a-__call_atexit.o)
 .debug_aranges
                0x0000000000002140       0x20 /usr/local/xenon/xenon/lib/32/libc.a(lib_a-closer.o)
 .debug_aranges
                0x0000000000002160       0x20 /usr/local/xenon/xenon/lib/32/libc.a(lib_a-dtoa.o)
 .debug_aranges
                0x0000000000002180       0x20 /usr/local/xenon/xenon/lib/32/libc.a(lib_a-fvwrite.o)
 .debug_aranges
                0x00000000000021a0       0x20 /usr/local/xenon/xenon/lib/32/libc.a(lib_a-isattyr.o)
 .debug_aranges
                0x00000000000021c0       0x20 /usr/local/xenon/xenon/lib/32/libc.a(lib_a-locale.o)
 .debug_aranges
                0x00000000000021e0       0x20 /usr/local/xenon/xenon/lib/32/libc.a(lib_a-lseekr.o)
 .debug_aranges
                0x0000000000002200       0x20 /usr/local/xenon/xenon/lib/32/libc.a(lib_a-memchr.o)
 .debug_aranges
                0x0000000000002220       0x20 /usr/local/xenon/xenon/lib/32/libc.a(lib_a-memmove.o)
 .debug_aranges
                0x0000000000002240       0x20 /usr/local/xenon/xenon/lib/32/libc.a(lib_a-mprec.o)
 .debug_aranges
                0x0000000000002260       0x20 /usr/local/xenon/xenon/lib/32/libc.a(lib_a-readr.o)
 .debug_aranges
                0x0000000000002280       0x20 /usr/local/xenon/xenon/lib/32/libc.a(lib_a-reallocr.o)
 .debug_aranges
                0x00000000000022a0       0x20 /usr/local/xenon/xenon/lib/32/libc.a(lib_a-s_isinfd.o)
 .debug_aranges
                0x00000000000022c0       0x20 /usr/local/xenon/xenon/lib/32/libc.a(lib_a-s_isnand.o)
 .debug_aranges
                0x00000000000022e0       0x20 /usr/local/xenon/xenon/lib/32/libc.a(lib_a-callocr.o)
 .debug_aranges
                0x0000000000002300       0x20 /usr/local/xenon/lib/gcc/xenon/4.6.1/32/libgcc.a(_udivdi3.o)
 .debug_aranges
                0x0000000000002320       0x20 /usr/local/xenon/lib/gcc/xenon/4.6.1/32/libgcc.a(_umoddi3.o)

.debug_ranges   0x0000000000000000     0x3af0
 .debug_ranges  0x0000000000000000       0x20 /usr/local/xenon/lib/gcc/xenon/4.6.1/../../../../xenon/lib/../lib/crt1.o
 .debug_ranges  0x0000000000000020       0x68 dashboard.o
 .debug_ranges  0x0000000000000088       0x10 main.o
 .debug_ranges  0x0000000000000098       0x10 VL.o
 .debug_ranges  0x00000000000000a8       0x10 /usr/local/xenon/usr/lib/libxenon.a(argv.o)
 .debug_ranges  0x00000000000000b8      0x100 /usr/local/xenon/usr/lib/libxenon.a(console.o)
 .debug_ranges  0x00000000000001b8       0x20 /usr/local/xenon/usr/lib/libxenon.a(input.o)
 .debug_ranges  0x00000000000001d8      0x208 /usr/local/xenon/usr/lib/libxenon.a(newlib.o)
 .debug_ranges  0x00000000000003e0       0x40 /usr/local/xenon/usr/lib/libxenon.a(xenon_syscalls.o)
 .debug_ranges  0x0000000000000420       0x60 /usr/local/xenon/usr/lib/libxenon.a(c_except.o)
 .debug_ranges  0x0000000000000480       0x30 /usr/local/xenon/usr/lib/libxenon.a(vm.o)
 .debug_ranges  0x00000000000004b0      0x148 /usr/local/xenon/usr/lib/libxenon.a(usbctrl.o)
 .debug_ranges  0x00000000000005f8      0x118 /usr/local/xenon/usr/lib/libxenon.a(usbd.o)
 .debug_ranges  0x0000000000000710       0x10 /usr/local/xenon/usr/lib/libxenon.a(usbdevs.o)
 .debug_ranges  0x0000000000000720       0x70 /usr/local/xenon/usr/lib/libxenon.a(usbhid.o)
 .debug_ranges  0x0000000000000790       0x88 /usr/local/xenon/usr/lib/libxenon.a(usbhub.o)
 .debug_ranges  0x0000000000000818       0x28 /usr/local/xenon/usr/lib/libxenon.a(usbmain.o)
 .debug_ranges  0x0000000000000840      0x5b0 /usr/local/xenon/usr/lib/libxenon.a(tinyehci.o)
 .debug_ranges  0x0000000000000df0       0xa0 /usr/local/xenon/usr/lib/libxenon.a(xenon_smc.o)
 .debug_ranges  0x0000000000000e90      0x140 /usr/local/xenon/usr/lib/libxenon.a(xenon_power.o)
 .debug_ranges  0x0000000000000fd0       0x28 /usr/local/xenon/usr/lib/libxenon.a(xenon_uart.o)
 .debug_ranges  0x0000000000000ff8      0x360 /usr/local/xenon/usr/lib/libxenon.a(xenon_sfcx.o)
 .debug_ranges  0x0000000000001358       0x28 /usr/local/xenon/usr/lib/libxenon.a(xenon_config.o)
 .debug_ranges  0x0000000000001380      0x138 /usr/local/xenon/usr/lib/libxenon.a(edram.o)
 .debug_ranges  0x00000000000014b8      0x670 /usr/local/xenon/usr/lib/libxenon.a(xe.o)
 .debug_ranges  0x0000000000001b28       0xd8 /usr/local/xenon/usr/lib/libxenon.a(xenos.o)
 .debug_ranges  0x0000000000001c00       0xb8 /usr/local/xenon/usr/lib/libxenon.a(xenos_edid.o)
 .debug_ranges  0x0000000000001cb8      0x210 /usr/local/xenon/usr/lib/libxenon.a(enet.o)
 .debug_ranges  0x0000000000001ec8       0x58 /usr/local/xenon/usr/lib/libxenon.a(network.o)
 .debug_ranges  0x0000000000001f20       0xa8 /usr/local/xenon/usr/lib/libxenon.a(xb360.o)
 .debug_ranges  0x0000000000001fc8       0x48 /usr/local/xenon/usr/lib/libxenon.a(lib_malloc.o)
 .debug_ranges  0x0000000000002010       0x28 /usr/local/xenon/usr/lib/libxenon.a(io.o)
 .debug_ranges  0x0000000000002038       0x28 /usr/local/xenon/usr/lib/libxenon.a(time.o)
 .debug_ranges  0x0000000000002060       0x18 /usr/local/xenon/usr/lib/libxenon.a(dummy.o)
 .debug_ranges  0x0000000000002078      0x1b0 /usr/local/xenon/usr/lib/libxenon.a(ohci.o)
 .debug_ranges  0x0000000000002228       0x68 /usr/local/xenon/usr/lib/libxenon.a(usbdebug.o)
 .debug_ranges  0x0000000000002290       0x68 /usr/local/xenon/usr/lib/libxenon.a(usb_os.o)
 .debug_ranges  0x00000000000022f8       0x20 /usr/local/xenon/usr/lib/libxenon.a(xenon_gpio.o)
 .debug_ranges  0x0000000000002318       0x10 /usr/local/xenon/usr/lib/libxenon.a(init.o)
 .debug_ranges  0x0000000000002328       0x60 /usr/local/xenon/usr/lib/libxenon.a(mem.o)
 .debug_ranges  0x0000000000002388      0x100 /usr/local/xenon/usr/lib/libxenon.a(dns.o)
 .debug_ranges  0x0000000000002488       0x20 /usr/local/xenon/usr/lib/libxenon.a(memp.o)
 .debug_ranges  0x00000000000024a8       0xb8 /usr/local/xenon/usr/lib/libxenon.a(netif.o)
 .debug_ranges  0x0000000000002560       0xe0 /usr/local/xenon/usr/lib/libxenon.a(pbuf.o)
 .debug_ranges  0x0000000000002640       0x10 /usr/local/xenon/usr/lib/libxenon.a(stats.o)
 .debug_ranges  0x0000000000002650      0x168 /usr/local/xenon/usr/lib/libxenon.a(tcp.o)
 .debug_ranges  0x00000000000027b8       0x38 /usr/local/xenon/usr/lib/libxenon.a(ip_addr.o)
 .debug_ranges  0x00000000000027f0       0x40 /usr/local/xenon/usr/lib/libxenon.a(ip.o)
 .debug_ranges  0x0000000000002830      0x120 /usr/local/xenon/usr/lib/libxenon.a(ip_frag.o)
 .debug_ranges  0x0000000000002950      0x108 /usr/local/xenon/usr/lib/libxenon.a(tcp_out.o)
 .debug_ranges  0x0000000000002a58       0x58 /usr/local/xenon/usr/lib/libxenon.a(udp.o)
 .debug_ranges  0x0000000000002ab0      0x108 /usr/local/xenon/usr/lib/libxenon.a(etharp.o)
 .debug_ranges  0x0000000000002bb8      0x250 /usr/local/xenon/usr/lib/libxenon.a(dhcp.o)
 .debug_ranges  0x0000000000002e08       0x48 /usr/local/xenon/usr/lib/libxenon.a(raw.o)
 .debug_ranges  0x0000000000002e50       0x10 /usr/local/xenon/usr/lib/libxenon.a(timers.o)
 .debug_ranges  0x0000000000002e60       0x38 /usr/local/xenon/usr/lib/libxenon.a(lib_queue.o)
 .debug_ranges  0x0000000000002e98       0x58 /usr/local/xenon/usr/lib/libxenon.a(tcp_in.o)
 .debug_ranges  0x0000000000002ef0       0x30 /usr/local/xenon/usr/lib/libxenon.a(inet_chksum.o)
 .debug_ranges  0x0000000000002f20       0x40 /usr/local/xenon/usr/lib/libxenon.a(icmp.o)
 .debug_ranges  0x0000000000002f60      0x380 /usr/local/xenon/lib/gcc/xenon/4.6.1/32/libgcc.a(unwind-dw2-fde-glibc.o)
 .debug_ranges  0x00000000000032e0       0x20 /usr/local/xenon/xenon/lib/32/libc.a(lib_a-fflush.o)
 .debug_ranges  0x0000000000003300       0x60 /usr/local/xenon/xenon/lib/32/libc.a(lib_a-fwalk.o)
 .debug_ranges  0x0000000000003360       0x50 /usr/local/xenon/xenon/lib/32/libc.a(lib_a-mallocr.o)
 .debug_ranges  0x00000000000033b0       0x20 /usr/local/xenon/xenon/lib/32/libc.a(lib_a-strcat.o)
 .debug_ranges  0x00000000000033d0      0x1b0 /usr/local/xenon/xenon/lib/32/libc.a(lib_a-svfprintf.o)
 .debug_ranges  0x0000000000003580       0x70 /usr/local/xenon/xenon/lib/32/libc.a(lib_a-vfiprintf.o)
 .debug_ranges  0x00000000000035f0      0x1a0 /usr/local/xenon/xenon/lib/32/libc.a(lib_a-vfprintf.o)
 .debug_ranges  0x0000000000003790       0x28 /usr/local/xenon/xenon/lib/32/libc.a(lib_a-__call_atexit.o)
 .debug_ranges  0x00000000000037b8       0x20 /usr/local/xenon/xenon/lib/32/libc.a(lib_a-fvwrite.o)
 .debug_ranges  0x00000000000037d8       0xf8 /usr/local/xenon/xenon/lib/32/libc.a(lib_a-reallocr.o)
 .debug_ranges  0x00000000000038d0       0x18 /usr/local/xenon/xenon/lib/32/libc.a(lib_a-callocr.o)
 .debug_ranges  0x00000000000038e8       0xf8 /usr/local/xenon/lib/gcc/xenon/4.6.1/32/libgcc.a(_udivdi3.o)
 .debug_ranges  0x00000000000039e0      0x110 /usr/local/xenon/lib/gcc/xenon/4.6.1/32/libgcc.a(_umoddi3.o)

.debug_line     0x0000000000000000    0x1506c
 .debug_line    0x0000000000000000       0xa0 /usr/local/xenon/lib/gcc/xenon/4.6.1/../../../../xenon/lib/../lib/crt1.o
 .debug_line    0x00000000000000a0      0x1bf dashboard.o
 .debug_line    0x000000000000025f       0x65 main.o
 .debug_line    0x00000000000002c4      0x13f VL.o
 .debug_line    0x0000000000000403       0x66 /usr/local/xenon/usr/lib/libxenon.a(argv.o)
 .debug_line    0x0000000000000469      0x1f9 /usr/local/xenon/usr/lib/libxenon.a(console.o)
 .debug_line    0x0000000000000662       0xd1 /usr/local/xenon/usr/lib/libxenon.a(input.o)
 .debug_line    0x0000000000000733      0x9b1 /usr/local/xenon/usr/lib/libxenon.a(newlib.o)
 .debug_line    0x00000000000010e4      0x24e /usr/local/xenon/usr/lib/libxenon.a(xenon_syscalls.o)
 .debug_line    0x0000000000001332      0x142 /usr/local/xenon/usr/lib/libxenon.a(c_except.o)
 .debug_line    0x0000000000001474      0x156 /usr/local/xenon/usr/lib/libxenon.a(vm.o)
 .debug_line    0x00000000000015ca      0x35d /usr/local/xenon/usr/lib/libxenon.a(usbctrl.o)
 .debug_line    0x0000000000001927      0x52f /usr/local/xenon/usr/lib/libxenon.a(usbd.o)
 .debug_line    0x0000000000001e56      0x13d /usr/local/xenon/usr/lib/libxenon.a(usbdevs.o)
 .debug_line    0x0000000000001f93      0x1bc /usr/local/xenon/usr/lib/libxenon.a(usbhid.o)
 .debug_line    0x000000000000214f      0x348 /usr/local/xenon/usr/lib/libxenon.a(usbhub.o)
 .debug_line    0x0000000000002497      0x160 /usr/local/xenon/usr/lib/libxenon.a(usbmain.o)
 .debug_line    0x00000000000025f7     0x1005 /usr/local/xenon/usr/lib/libxenon.a(tinyehci.o)
 .debug_line    0x00000000000035fc      0x2df /usr/local/xenon/usr/lib/libxenon.a(xenon_smc.o)
 .debug_line    0x00000000000038db      0x36d /usr/local/xenon/usr/lib/libxenon.a(xenon_power.o)
 .debug_line    0x0000000000003c48      0x107 /usr/local/xenon/usr/lib/libxenon.a(xenon_uart.o)
 .debug_line    0x0000000000003d4f      0x5f1 /usr/local/xenon/usr/lib/libxenon.a(xenon_sfcx.o)
 .debug_line    0x0000000000004340      0x174 /usr/local/xenon/usr/lib/libxenon.a(xenon_config.o)
 .debug_line    0x00000000000044b4      0xb26 /usr/local/xenon/usr/lib/libxenon.a(edram.o)
 .debug_line    0x0000000000004fda     0x1688 /usr/local/xenon/usr/lib/libxenon.a(xe.o)
 .debug_line    0x0000000000006662      0x3e6 /usr/local/xenon/usr/lib/libxenon.a(xenos.o)
 .debug_line    0x0000000000006a48      0x1f8 /usr/local/xenon/usr/lib/libxenon.a(xenos_edid.o)
 .debug_line    0x0000000000006c40      0x377 /usr/local/xenon/usr/lib/libxenon.a(enet.o)
 .debug_line    0x0000000000006fb7      0x259 /usr/local/xenon/usr/lib/libxenon.a(network.o)
 .debug_line    0x0000000000007210      0x32d /usr/local/xenon/usr/lib/libxenon.a(xb360.o)
 .debug_line    0x000000000000753d      0x1c3 /usr/local/xenon/usr/lib/libxenon.a(lib_malloc.o)
 .debug_line    0x0000000000007700       0xc1 /usr/local/xenon/usr/lib/libxenon.a(io.o)
 .debug_line    0x00000000000077c1      0x10f /usr/local/xenon/usr/lib/libxenon.a(time.o)
 .debug_line    0x00000000000078d0       0xea /usr/local/xenon/usr/lib/libxenon.a(dummy.o)
 .debug_line    0x00000000000079ba      0x62b /usr/local/xenon/usr/lib/libxenon.a(ohci.o)
 .debug_line    0x0000000000007fe5      0x2c6 /usr/local/xenon/usr/lib/libxenon.a(usbdebug.o)
 .debug_line    0x00000000000082ab      0x199 /usr/local/xenon/usr/lib/libxenon.a(usb_os.o)
 .debug_line    0x0000000000008444       0xd0 /usr/local/xenon/usr/lib/libxenon.a(xenon_gpio.o)
 .debug_line    0x0000000000008514       0xa2 /usr/local/xenon/usr/lib/libxenon.a(ucode.o)
 .debug_line    0x00000000000085b6       0x57 /usr/local/xenon/usr/lib/libxenon.a(init.o)
 .debug_line    0x000000000000860d      0x237 /usr/local/xenon/usr/lib/libxenon.a(mem.o)
 .debug_line    0x0000000000008844      0x37a /usr/local/xenon/usr/lib/libxenon.a(dns.o)
 .debug_line    0x0000000000008bbe      0x173 /usr/local/xenon/usr/lib/libxenon.a(memp.o)
 .debug_line    0x0000000000008d31      0x338 /usr/local/xenon/usr/lib/libxenon.a(netif.o)
 .debug_line    0x0000000000009069      0x5ad /usr/local/xenon/usr/lib/libxenon.a(pbuf.o)
 .debug_line    0x0000000000009616       0xbe /usr/local/xenon/usr/lib/libxenon.a(stats.o)
 .debug_line    0x00000000000096d4      0x7c9 /usr/local/xenon/usr/lib/libxenon.a(tcp.o)
 .debug_line    0x0000000000009e9d      0x23b /usr/local/xenon/usr/lib/libxenon.a(ip_addr.o)
 .debug_line    0x000000000000a0d8      0x2c6 /usr/local/xenon/usr/lib/libxenon.a(ip.o)
 .debug_line    0x000000000000a39e      0x412 /usr/local/xenon/usr/lib/libxenon.a(ip_frag.o)
 .debug_line    0x000000000000a7b0      0x6cd /usr/local/xenon/usr/lib/libxenon.a(tcp_out.o)
 .debug_line    0x000000000000ae7d      0x406 /usr/local/xenon/usr/lib/libxenon.a(udp.o)
 .debug_line    0x000000000000b283      0x51b /usr/local/xenon/usr/lib/libxenon.a(etharp.o)
 .debug_line    0x000000000000b79e      0x835 /usr/local/xenon/usr/lib/libxenon.a(dhcp.o)
 .debug_line    0x000000000000bfd3      0x22f /usr/local/xenon/usr/lib/libxenon.a(raw.o)
 .debug_line    0x000000000000c202       0x52 /usr/local/xenon/usr/lib/libxenon.a(timers.o)
 .debug_line    0x000000000000c254       0xec /usr/local/xenon/usr/lib/libxenon.a(lib_queue.o)
 .debug_line    0x000000000000c340      0x683 /usr/local/xenon/usr/lib/libxenon.a(tcp_in.o)
 .debug_line    0x000000000000c9c3      0x1db /usr/local/xenon/usr/lib/libxenon.a(inet_chksum.o)
 .debug_line    0x000000000000cb9e      0x20c /usr/local/xenon/usr/lib/libxenon.a(icmp.o)
 .debug_line    0x000000000000cdaa       0x4d /usr/local/xenon/lib/gcc/xenon/4.6.1/32/libgcc.a(crtsavgpr.o)
 .debug_line    0x000000000000cdf7       0x51 /usr/local/xenon/lib/gcc/xenon/4.6.1/32/libgcc.a(crtresxgpr.o)
 .debug_line    0x000000000000ce48      0x705 /usr/local/xenon/lib/gcc/xenon/4.6.1/32/libgcc.a(unwind-dw2-fde-glibc.o)
 .debug_line    0x000000000000d54d      0x16e /usr/local/xenon/xenon/lib/32/libc.a(lib_a-assert.o)
 .debug_line    0x000000000000d6bb      0x15c /usr/local/xenon/xenon/lib/32/libc.a(lib_a-exit.o)
 .debug_line    0x000000000000d817      0x1a4 /usr/local/xenon/xenon/lib/32/libc.a(lib_a-fclose.o)
 .debug_line    0x000000000000d9bb      0x25e /usr/local/xenon/xenon/lib/32/libc.a(lib_a-fflush.o)
 .debug_line    0x000000000000dc19      0x217 /usr/local/xenon/xenon/lib/32/libc.a(lib_a-findfp.o)
 .debug_line    0x000000000000de30      0x181 /usr/local/xenon/xenon/lib/32/libc.a(lib_a-fiprintf.o)
 .debug_line    0x000000000000dfb1      0x1ea /usr/local/xenon/xenon/lib/32/libc.a(lib_a-freer.o)
 .debug_line    0x000000000000e19b      0x177 /usr/local/xenon/xenon/lib/32/libc.a(lib_a-fstatr.o)
 .debug_line    0x000000000000e312      0x184 /usr/local/xenon/xenon/lib/32/libc.a(lib_a-fwalk.o)
 .debug_line    0x000000000000e496       0xfa /usr/local/xenon/xenon/lib/32/libc.a(lib_a-impure.o)
 .debug_line    0x000000000000e590      0x1e4 /usr/local/xenon/xenon/lib/32/libc.a(lib_a-makebuf.o)
 .debug_line    0x000000000000e774      0x15b /usr/local/xenon/xenon/lib/32/libc.a(lib_a-malign.o)
 .debug_line    0x000000000000e8cf      0x187 /usr/local/xenon/xenon/lib/32/libc.a(lib_a-malignr.o)
 .debug_line    0x000000000000ea56      0x15d /usr/local/xenon/xenon/lib/32/libc.a(lib_a-malloc.o)
 .debug_line    0x000000000000ebb3      0x358 /usr/local/xenon/xenon/lib/32/libc.a(lib_a-mallocr.o)
 .debug_line    0x000000000000ef0b      0x141 /usr/local/xenon/xenon/lib/32/libc.a(lib_a-memcmp.o)
 .debug_line    0x000000000000f04c      0x17d /usr/local/xenon/xenon/lib/32/libc.a(lib_a-memcpy.o)
 .debug_line    0x000000000000f1c9      0x17f /usr/local/xenon/xenon/lib/32/libc.a(lib_a-memset.o)
 .debug_line    0x000000000000f348      0x186 /usr/local/xenon/xenon/lib/32/libc.a(lib_a-printf.o)
 .debug_line    0x000000000000f4ce      0x15c /usr/local/xenon/xenon/lib/32/libc.a(lib_a-putchar.o)
 .debug_line    0x000000000000f62a      0x1f9 /usr/local/xenon/xenon/lib/32/libc.a(lib_a-putc.o)
 .debug_line    0x000000000000f823      0x185 /usr/local/xenon/xenon/lib/32/libc.a(lib_a-puts.o)
 .debug_line    0x000000000000f9a8      0x153 /usr/local/xenon/xenon/lib/32/libc.a(lib_a-reent.o)
 .debug_line    0x000000000000fafb      0x161 /usr/local/xenon/xenon/lib/32/libc.a(lib_a-sbrkr.o)
 .debug_line    0x000000000000fc5c      0x1b0 /usr/local/xenon/xenon/lib/32/libc.a(lib_a-sprintf.o)
 .debug_line    0x000000000000fe0c      0x186 /usr/local/xenon/xenon/lib/32/libc.a(lib_a-stdio.o)
 .debug_line    0x000000000000ff92       0xf2 /usr/local/xenon/xenon/lib/32/libc.a(lib_a-strcat.o)
 .debug_line    0x0000000000010084      0x103 /usr/local/xenon/xenon/lib/32/libc.a(lib_a-strcmp.o)
 .debug_line    0x0000000000010187       0xdf /usr/local/xenon/xenon/lib/32/libc.a(lib_a-strcpy.o)
 .debug_line    0x0000000000010266      0x128 /usr/local/xenon/xenon/lib/32/libc.a(lib_a-strlen.o)
 .debug_line    0x000000000001038e      0x144 /usr/local/xenon/xenon/lib/32/libc.a(lib_a-strncpy.o)
 .debug_line    0x00000000000104d2      0xbd5 /usr/local/xenon/xenon/lib/32/libc.a(lib_a-svfprintf.o)
 .debug_line    0x00000000000110a7      0x89b /usr/local/xenon/xenon/lib/32/libc.a(lib_a-vfiprintf.o)
 .debug_line    0x0000000000011942      0xbc2 /usr/local/xenon/xenon/lib/32/libc.a(lib_a-vfprintf.o)
 .debug_line    0x0000000000012504      0x16c /usr/local/xenon/xenon/lib/32/libc.a(lib_a-vprintf.o)
 .debug_line    0x0000000000012670      0x1e9 /usr/local/xenon/xenon/lib/32/libc.a(lib_a-wbuf.o)
 .debug_line    0x0000000000012859      0x164 /usr/local/xenon/xenon/lib/32/libc.a(lib_a-writer.o)
 .debug_line    0x00000000000129bd      0x1b5 /usr/local/xenon/xenon/lib/32/libc.a(lib_a-wsetup.o)
 .debug_line    0x0000000000012b72      0x187 /usr/local/xenon/xenon/lib/32/libc.a(lib_a-__call_atexit.o)
 .debug_line    0x0000000000012cf9      0x162 /usr/local/xenon/xenon/lib/32/libc.a(lib_a-closer.o)
 .debug_line    0x0000000000012e5b      0x7cd /usr/local/xenon/xenon/lib/32/libc.a(lib_a-dtoa.o)
 .debug_line    0x0000000000013628      0x291 /usr/local/xenon/xenon/lib/32/libc.a(lib_a-fvwrite.o)
 .debug_line    0x00000000000138b9      0x163 /usr/local/xenon/xenon/lib/32/libc.a(lib_a-isattyr.o)
 .debug_line    0x0000000000013a1c      0x188 /usr/local/xenon/xenon/lib/32/libc.a(lib_a-locale.o)
 .debug_line    0x0000000000013ba4      0x164 /usr/local/xenon/xenon/lib/32/libc.a(lib_a-lseekr.o)
 .debug_line    0x0000000000013d08      0x144 /usr/local/xenon/xenon/lib/32/libc.a(lib_a-memchr.o)
 .debug_line    0x0000000000013e4c      0x189 /usr/local/xenon/xenon/lib/32/libc.a(lib_a-memmove.o)
 .debug_line    0x0000000000013fd5      0x74d /usr/local/xenon/xenon/lib/32/libc.a(lib_a-mprec.o)
 .debug_line    0x0000000000014722      0x163 /usr/local/xenon/xenon/lib/32/libc.a(lib_a-readr.o)
 .debug_line    0x0000000000014885      0x27f /usr/local/xenon/xenon/lib/32/libc.a(lib_a-reallocr.o)
 .debug_line    0x0000000000014b04      0x129 /usr/local/xenon/xenon/lib/32/libc.a(lib_a-s_isinfd.o)
 .debug_line    0x0000000000014c2d      0x129 /usr/local/xenon/xenon/lib/32/libc.a(lib_a-s_isnand.o)
 .debug_line    0x0000000000014d56      0x142 /usr/local/xenon/xenon/lib/32/libc.a(lib_a-callocr.o)
 .debug_line    0x0000000000014e98       0xe7 /usr/local/xenon/lib/gcc/xenon/4.6.1/32/libgcc.a(_udivdi3.o)
 .debug_line    0x0000000000014f7f       0xed /usr/local/xenon/lib/gcc/xenon/4.6.1/32/libgcc.a(_umoddi3.o)

.debug_str      0x0000000000000000     0xf90f
 .debug_str     0x0000000000000000      0x12a /usr/local/xenon/lib/gcc/xenon/4.6.1/../../../../xenon/lib/../lib/crt1.o
                                        0x17f (size before relaxing)
 .debug_str     0x000000000000012a      0x1a1 dashboard.o
                                        0x27b (size before relaxing)
 .debug_str     0x00000000000002cb       0x45 main.o
                                        0x113 (size before relaxing)
 .debug_str     0x0000000000000310      0x31f VL.o
                                        0x48b (size before relaxing)
 .debug_str     0x000000000000062f       0x28 /usr/local/xenon/usr/lib/libxenon.a(argv.o)
                                        0x119 (size before relaxing)
 .debug_str     0x0000000000000657      0x18f /usr/local/xenon/usr/lib/libxenon.a(console.o)
                                        0x2b8 (size before relaxing)
 .debug_str     0x00000000000007e6       0x62 /usr/local/xenon/usr/lib/libxenon.a(input.o)
                                        0x17c (size before relaxing)
 .debug_str     0x0000000000000848      0x9f7 /usr/local/xenon/usr/lib/libxenon.a(newlib.o)
                                        0xcc8 (size before relaxing)
 .debug_str     0x000000000000123f       0xf4 /usr/local/xenon/usr/lib/libxenon.a(xenon_syscalls.o)
                                        0x65f (size before relaxing)
 .debug_str     0x0000000000001333       0x76 /usr/local/xenon/usr/lib/libxenon.a(c_except.o)
                                        0x161 (size before relaxing)
 .debug_str     0x00000000000013a9      0x113 /usr/local/xenon/usr/lib/libxenon.a(vm.o)
                                        0x20c (size before relaxing)
 .debug_str     0x00000000000014bc      0x7b2 /usr/local/xenon/usr/lib/libxenon.a(usbctrl.o)
                                        0x945 (size before relaxing)
 .debug_str     0x0000000000001c6e      0x40a /usr/local/xenon/usr/lib/libxenon.a(usbd.o)
                                        0xa98 (size before relaxing)
 .debug_str     0x0000000000002078       0xb6 /usr/local/xenon/usr/lib/libxenon.a(usbdevs.o)
                                        0x6db (size before relaxing)
 .debug_str     0x000000000000212e      0x112 /usr/local/xenon/usr/lib/libxenon.a(usbhid.o)
                                        0x892 (size before relaxing)
 .debug_str     0x0000000000002240      0x371 /usr/local/xenon/usr/lib/libxenon.a(usbhub.o)
                                        0xa9f (size before relaxing)
 .debug_str     0x00000000000025b1       0x94 /usr/local/xenon/usr/lib/libxenon.a(usbmain.o)
                                        0x600 (size before relaxing)
 .debug_str     0x0000000000002645      0xb82 /usr/local/xenon/usr/lib/libxenon.a(tinyehci.o)
                                        0xfba (size before relaxing)
 .debug_str     0x00000000000031c7      0x1f2 /usr/local/xenon/usr/lib/libxenon.a(xenon_smc.o)
                                        0x2f0 (size before relaxing)
 .debug_str     0x00000000000033b9      0x18d /usr/local/xenon/usr/lib/libxenon.a(xenon_power.o)
                                        0x2a2 (size before relaxing)
 .debug_str     0x0000000000003546       0x3c /usr/local/xenon/usr/lib/libxenon.a(xenon_uart.o)
                                        0x10c (size before relaxing)
 .debug_str     0x0000000000003582      0x2dc /usr/local/xenon/usr/lib/libxenon.a(xenon_sfcx.o)
                                        0x4db (size before relaxing)
 .debug_str     0x000000000000385e      0x1db /usr/local/xenon/usr/lib/libxenon.a(xenon_config.o)
                                        0x3af (size before relaxing)
 .debug_str     0x0000000000003a39      0x1a4 /usr/local/xenon/usr/lib/libxenon.a(edram.o)
                                        0x5fa (size before relaxing)
 .debug_str     0x0000000000003bdd      0xc78 /usr/local/xenon/usr/lib/libxenon.a(xe.o)
                                       0x1562 (size before relaxing)
 .debug_str     0x0000000000004855      0x63d /usr/local/xenon/usr/lib/libxenon.a(xenos.o)
                                        0x7ba (size before relaxing)
 .debug_str     0x0000000000004e92       0xfa /usr/local/xenon/usr/lib/libxenon.a(xenos_edid.o)
                                        0x581 (size before relaxing)
 .debug_str     0x0000000000004f8c      0x373 /usr/local/xenon/usr/lib/libxenon.a(enet.o)
                                        0x532 (size before relaxing)
 .debug_str     0x00000000000052ff      0x22b /usr/local/xenon/usr/lib/libxenon.a(network.o)
                                        0x508 (size before relaxing)
 .debug_str     0x000000000000552a      0x21f /usr/local/xenon/usr/lib/libxenon.a(xb360.o)
                                        0x455 (size before relaxing)
 .debug_str     0x0000000000005749      0x132 /usr/local/xenon/usr/lib/libxenon.a(lib_malloc.o)
                                        0x2b5 (size before relaxing)
 .debug_str     0x000000000000587b       0x28 /usr/local/xenon/usr/lib/libxenon.a(io.o)
                                         0xff (size before relaxing)
 .debug_str     0x00000000000058a3       0x2f /usr/local/xenon/usr/lib/libxenon.a(time.o)
                                        0x106 (size before relaxing)
 .debug_str     0x00000000000058d2       0x34 /usr/local/xenon/usr/lib/libxenon.a(dummy.o)
                                        0x593 (size before relaxing)
 .debug_str     0x0000000000005906      0x553 /usr/local/xenon/usr/lib/libxenon.a(ohci.o)
                                        0xe6a (size before relaxing)
 .debug_str     0x0000000000005e59      0x146 /usr/local/xenon/usr/lib/libxenon.a(usbdebug.o)
                                        0x8fd (size before relaxing)
 .debug_str     0x0000000000005f9f      0x115 /usr/local/xenon/usr/lib/libxenon.a(usb_os.o)
                                        0x201 (size before relaxing)
 .debug_str     0x00000000000060b4       0x59 /usr/local/xenon/usr/lib/libxenon.a(xenon_gpio.o)
                                        0x122 (size before relaxing)
 .debug_str     0x000000000000610d       0x1c /usr/local/xenon/usr/lib/libxenon.a(ucode.o)
                                        0x10b (size before relaxing)
 .debug_str     0x0000000000006129       0x29 /usr/local/xenon/usr/lib/libxenon.a(init.o)
                                         0xe8 (size before relaxing)
 .debug_str     0x0000000000006152       0xaf /usr/local/xenon/usr/lib/libxenon.a(mem.o)
                                        0x2da (size before relaxing)
 .debug_str     0x0000000000006201      0x1e9 /usr/local/xenon/usr/lib/libxenon.a(dns.o)
                                        0x41b (size before relaxing)
 .debug_str     0x00000000000063ea       0x6f /usr/local/xenon/usr/lib/libxenon.a(memp.o)
                                        0x296 (size before relaxing)
 .debug_str     0x0000000000006459      0x385 /usr/local/xenon/usr/lib/libxenon.a(netif.o)
                                        0x854 (size before relaxing)
 .debug_str     0x00000000000067de      0x20b /usr/local/xenon/usr/lib/libxenon.a(pbuf.o)
                                        0x45a (size before relaxing)
 .debug_str     0x00000000000069e9       0x2b /usr/local/xenon/usr/lib/libxenon.a(stats.o)
                                        0x233 (size before relaxing)
 .debug_str     0x0000000000006a14      0x32d /usr/local/xenon/usr/lib/libxenon.a(tcp.o)
                                        0x96b (size before relaxing)
 .debug_str     0x0000000000006d41       0xaa /usr/local/xenon/usr/lib/libxenon.a(ip_addr.o)
                                        0x2a7 (size before relaxing)
 .debug_str     0x0000000000006deb      0x151 /usr/local/xenon/usr/lib/libxenon.a(ip.o)
                                        0x684 (size before relaxing)
 .debug_str     0x0000000000006f3c      0x283 /usr/local/xenon/usr/lib/libxenon.a(ip_frag.o)
                                        0x6ab (size before relaxing)
 .debug_str     0x00000000000071bf      0x1cd /usr/local/xenon/usr/lib/libxenon.a(tcp_out.o)
                                        0x832 (size before relaxing)
 .debug_str     0x000000000000738c       0xcf /usr/local/xenon/usr/lib/libxenon.a(udp.o)
                                        0x700 (size before relaxing)
 .debug_str     0x000000000000745b      0x2ae /usr/local/xenon/usr/lib/libxenon.a(etharp.o)
                                        0x871 (size before relaxing)
 .debug_str     0x0000000000007709      0x32d /usr/local/xenon/usr/lib/libxenon.a(dhcp.o)
                                        0x829 (size before relaxing)
 .debug_str     0x0000000000007a36       0x90 /usr/local/xenon/usr/lib/libxenon.a(raw.o)
                                        0x41e (size before relaxing)
 .debug_str     0x0000000000007ac6       0x32 /usr/local/xenon/usr/lib/libxenon.a(timers.o)
                                         0xf1 (size before relaxing)
 .debug_str     0x0000000000007af8       0x5e /usr/local/xenon/usr/lib/libxenon.a(lib_queue.o)
                                        0x14d (size before relaxing)
 .debug_str     0x0000000000007b56      0x123 /usr/local/xenon/usr/lib/libxenon.a(tcp_in.o)
                                        0x7e5 (size before relaxing)
 .debug_str     0x0000000000007c79       0xaf /usr/local/xenon/usr/lib/libxenon.a(inet_chksum.o)
                                        0x1de (size before relaxing)
 .debug_str     0x0000000000007d28       0x8c /usr/local/xenon/usr/lib/libxenon.a(icmp.o)
                                        0x47d (size before relaxing)
 .debug_str     0x0000000000007db4     0x639b /usr/local/xenon/lib/gcc/xenon/4.6.1/32/libgcc.a(unwind-dw2-fde-glibc.o)
                                       0x64bc (size before relaxing)
 .debug_str     0x000000000000e14f       0x9f /usr/local/xenon/xenon/lib/32/libc.a(lib_a-assert.o)
                                        0x4fe (size before relaxing)
 .debug_str     0x000000000000e1ee       0x4d /usr/local/xenon/xenon/lib/32/libc.a(lib_a-exit.o)
                                        0x4dc (size before relaxing)
 .debug_str     0x000000000000e23b       0x8c /usr/local/xenon/xenon/lib/32/libc.a(lib_a-fclose.o)
                                        0x4e6 (size before relaxing)
 .debug_str     0x000000000000e2c7       0x53 /usr/local/xenon/xenon/lib/32/libc.a(lib_a-fflush.o)
                                        0x502 (size before relaxing)
 .debug_str     0x000000000000e31a       0xfd /usr/local/xenon/xenon/lib/32/libc.a(lib_a-findfp.o)
                                        0x5c4 (size before relaxing)
 .debug_str     0x000000000000e417       0x49 /usr/local/xenon/xenon/lib/32/libc.a(lib_a-fiprintf.o)
                                        0x535 (size before relaxing)
 .debug_str     0x000000000000e460      0x156 /usr/local/xenon/xenon/lib/32/libc.a(lib_a-freer.o)
                                        0x613 (size before relaxing)
 .debug_str     0x000000000000e5b6       0x8a /usr/local/xenon/xenon/lib/32/libc.a(lib_a-fstatr.o)
                                        0x5c1 (size before relaxing)
 .debug_str     0x000000000000e640       0x5f /usr/local/xenon/xenon/lib/32/libc.a(lib_a-fwalk.o)
                                        0x505 (size before relaxing)
 .debug_str     0x000000000000e69f       0x47 /usr/local/xenon/xenon/lib/32/libc.a(lib_a-impure.o)
                                        0x4ea (size before relaxing)
 .debug_str     0x000000000000e6e6       0x54 /usr/local/xenon/xenon/lib/32/libc.a(lib_a-makebuf.o)
                                        0x5d6 (size before relaxing)
 .debug_str     0x000000000000e73a       0x43 /usr/local/xenon/xenon/lib/32/libc.a(lib_a-malign.o)
                                        0x4ea (size before relaxing)
 .debug_str     0x000000000000e77d       0x3d /usr/local/xenon/xenon/lib/32/libc.a(lib_a-malignr.o)
                                        0x544 (size before relaxing)
 .debug_str     0x000000000000e7ba       0x3c /usr/local/xenon/xenon/lib/32/libc.a(lib_a-malloc.o)
                                        0x4ec (size before relaxing)
 .debug_str     0x000000000000e7f6       0xca /usr/local/xenon/xenon/lib/32/libc.a(lib_a-mallocr.o)
                                        0x6c1 (size before relaxing)
 .debug_str     0x000000000000e8c0       0x7d /usr/local/xenon/xenon/lib/32/libc.a(lib_a-memcmp.o)
                                        0x120 (size before relaxing)
 .debug_str     0x000000000000e93d       0x6a /usr/local/xenon/xenon/lib/32/libc.a(lib_a-memcpy.o)
                                        0x147 (size before relaxing)
 .debug_str     0x000000000000e9a7       0x50 /usr/local/xenon/xenon/lib/32/libc.a(lib_a-memset.o)
                                        0x134 (size before relaxing)
 .debug_str     0x000000000000e9f7       0x45 /usr/local/xenon/xenon/lib/32/libc.a(lib_a-printf.o)
                                        0x52a (size before relaxing)
 .debug_str     0x000000000000ea3c       0x4f /usr/local/xenon/xenon/lib/32/libc.a(lib_a-putchar.o)
                                        0x4df (size before relaxing)
 .debug_str     0x000000000000ea8b       0x46 /usr/local/xenon/xenon/lib/32/libc.a(lib_a-putc.o)
                                        0x4e2 (size before relaxing)
 .debug_str     0x000000000000ead1       0x7d /usr/local/xenon/xenon/lib/32/libc.a(lib_a-puts.o)
                                        0x519 (size before relaxing)
 .debug_str     0x000000000000eb4e       0x74 /usr/local/xenon/xenon/lib/32/libc.a(lib_a-reent.o)
                                        0x50f (size before relaxing)
 .debug_str     0x000000000000ebc2       0x42 /usr/local/xenon/xenon/lib/32/libc.a(lib_a-sbrkr.o)
                                        0x4e0 (size before relaxing)
 .debug_str     0x000000000000ec04       0x4f /usr/local/xenon/xenon/lib/32/libc.a(lib_a-sprintf.o)
                                        0x532 (size before relaxing)
 .debug_str     0x000000000000ec53       0x63 /usr/local/xenon/xenon/lib/32/libc.a(lib_a-stdio.o)
                                        0x501 (size before relaxing)
 .debug_str     0x000000000000ecb6       0x4e /usr/local/xenon/xenon/lib/32/libc.a(lib_a-strcat.o)
                                        0x124 (size before relaxing)
 .debug_str     0x000000000000ed04       0x43 /usr/local/xenon/xenon/lib/32/libc.a(lib_a-strcmp.o)
                                        0x119 (size before relaxing)
 .debug_str     0x000000000000ed47       0x43 /usr/local/xenon/xenon/lib/32/libc.a(lib_a-strcpy.o)
                                        0x13b (size before relaxing)
 .debug_str     0x000000000000ed8a       0x43 /usr/local/xenon/xenon/lib/32/libc.a(lib_a-strlen.o)
                                        0x133 (size before relaxing)
 .debug_str     0x000000000000edcd       0x45 /usr/local/xenon/xenon/lib/32/libc.a(lib_a-strncpy.o)
                                        0x14a (size before relaxing)
 .debug_str     0x000000000000ee12      0x13d /usr/local/xenon/xenon/lib/32/libc.a(lib_a-svfprintf.o)
                                        0x6ca (size before relaxing)
 .debug_str     0x000000000000ef4f       0x27 /usr/local/xenon/xenon/lib/32/libc.a(lib_a-vfiprintf.o)
                                        0x65a (size before relaxing)
 .debug_str     0x000000000000ef76       0x15 /usr/local/xenon/xenon/lib/32/libc.a(lib_a-vfprintf.o)
                                        0x6eb (size before relaxing)
 .debug_str     0x000000000000ef8b       0x4f /usr/local/xenon/xenon/lib/32/libc.a(lib_a-vprintf.o)
                                        0x516 (size before relaxing)
 .debug_str     0x000000000000efda       0x4b /usr/local/xenon/xenon/lib/32/libc.a(lib_a-wbuf.o)
                                        0x4e0 (size before relaxing)
 .debug_str     0x000000000000f025       0x44 /usr/local/xenon/xenon/lib/32/libc.a(lib_a-writer.o)
                                        0x4de (size before relaxing)
 .debug_str     0x000000000000f069       0x47 /usr/local/xenon/xenon/lib/32/libc.a(lib_a-wsetup.o)
                                        0x4dc (size before relaxing)
 .debug_str     0x000000000000f0b0       0x62 /usr/local/xenon/xenon/lib/32/libc.a(lib_a-__call_atexit.o)
                                        0x504 (size before relaxing)
 .debug_str     0x000000000000f112       0x44 /usr/local/xenon/xenon/lib/32/libc.a(lib_a-closer.o)
                                        0x4ce (size before relaxing)
 .debug_str     0x000000000000f156       0xfd /usr/local/xenon/xenon/lib/32/libc.a(lib_a-dtoa.o)
                                        0x5d1 (size before relaxing)
 .debug_str     0x000000000000f253       0x58 /usr/local/xenon/xenon/lib/32/libc.a(lib_a-fvwrite.o)
                                        0x533 (size before relaxing)
 .debug_str     0x000000000000f2ab       0x46 /usr/local/xenon/xenon/lib/32/libc.a(lib_a-isattyr.o)
                                        0x4d0 (size before relaxing)
 .debug_str     0x000000000000f2f1      0x1db /usr/local/xenon/xenon/lib/32/libc.a(lib_a-locale.o)
                                        0x679 (size before relaxing)
 .debug_str     0x000000000000f4cc       0x44 /usr/local/xenon/xenon/lib/32/libc.a(lib_a-lseekr.o)
                                        0x4dc (size before relaxing)
 .debug_str     0x000000000000f510       0x51 /usr/local/xenon/xenon/lib/32/libc.a(lib_a-memchr.o)
                                        0x13a (size before relaxing)
 .debug_str     0x000000000000f561       0x4e /usr/local/xenon/xenon/lib/32/libc.a(lib_a-memmove.o)
                                        0x153 (size before relaxing)
 .debug_str     0x000000000000f5af       0xf9 /usr/local/xenon/xenon/lib/32/libc.a(lib_a-mprec.o)
                                        0x5de (size before relaxing)
 .debug_str     0x000000000000f6a8       0x42 /usr/local/xenon/xenon/lib/32/libc.a(lib_a-readr.o)
                                        0x4dc (size before relaxing)
 .debug_str     0x000000000000f6ea       0x49 /usr/local/xenon/xenon/lib/32/libc.a(lib_a-reallocr.o)
                                        0x593 (size before relaxing)
 .debug_str     0x000000000000f733       0xae /usr/local/xenon/xenon/lib/32/libc.a(lib_a-s_isinfd.o)
                                        0x173 (size before relaxing)
 .debug_str     0x000000000000f7e1       0x47 /usr/local/xenon/xenon/lib/32/libc.a(lib_a-s_isnand.o)
                                        0x173 (size before relaxing)
 .debug_str     0x000000000000f828       0x19 /usr/local/xenon/xenon/lib/32/libc.a(lib_a-callocr.o)
                                        0x512 (size before relaxing)
 .debug_str     0x000000000000f841       0xc4 /usr/local/xenon/lib/gcc/xenon/4.6.1/32/libgcc.a(_udivdi3.o)
                                        0x1a3 (size before relaxing)
 .debug_str     0x000000000000f905        0xa /usr/local/xenon/lib/gcc/xenon/4.6.1/32/libgcc.a(_umoddi3.o)
                                        0x1a3 (size before relaxing)

.comment        0x0000000000000000       0x11
 .comment       0x0000000000000000       0x11 /usr/local/xenon/lib/gcc/xenon/4.6.1/../../../../xenon/lib/../lib/crt1.o
                                         0x12 (size before relaxing)
 .comment       0x0000000000000000       0x12 /usr/local/xenon/lib/gcc/xenon/4.6.1/32/crtbegin.o
 .comment       0x0000000000000000       0x12 dashboard.o
 .comment       0x0000000000000000       0x12 main.o
 .comment       0x0000000000000000       0x12 VL.o
 .comment       0x0000000000000000       0x12 /usr/local/xenon/usr/lib/libxenon.a(argv.o)
 .comment       0x0000000000000000       0x12 /usr/local/xenon/usr/lib/libxenon.a(console.o)
 .comment       0x0000000000000000       0x12 /usr/local/xenon/usr/lib/libxenon.a(input.o)
 .comment       0x0000000000000000       0x12 /usr/local/xenon/usr/lib/libxenon.a(newlib.o)
 .comment       0x0000000000000000       0x12 /usr/local/xenon/usr/lib/libxenon.a(xenon_syscalls.o)
 .comment       0x0000000000000000       0x12 /usr/local/xenon/usr/lib/libxenon.a(c_except.o)
 .comment       0x0000000000000000       0x12 /usr/local/xenon/usr/lib/libxenon.a(vm.o)
 .comment       0x0000000000000000       0x12 /usr/local/xenon/usr/lib/libxenon.a(usbctrl.o)
 .comment       0x0000000000000000       0x12 /usr/local/xenon/usr/lib/libxenon.a(usbd.o)
 .comment       0x0000000000000000       0x12 /usr/local/xenon/usr/lib/libxenon.a(usbdevs.o)
 .comment       0x0000000000000000       0x12 /usr/local/xenon/usr/lib/libxenon.a(usbhid.o)
 .comment       0x0000000000000000       0x12 /usr/local/xenon/usr/lib/libxenon.a(usbhub.o)
 .comment       0x0000000000000000       0x12 /usr/local/xenon/usr/lib/libxenon.a(usbmain.o)
 .comment       0x0000000000000000       0x12 /usr/local/xenon/usr/lib/libxenon.a(tinyehci.o)
 .comment       0x0000000000000000       0x12 /usr/local/xenon/usr/lib/libxenon.a(xenon_smc.o)
 .comment       0x0000000000000000       0x12 /usr/local/xenon/usr/lib/libxenon.a(xenon_power.o)
 .comment       0x0000000000000000       0x12 /usr/local/xenon/usr/lib/libxenon.a(xenon_uart.o)
 .comment       0x0000000000000000       0x12 /usr/local/xenon/usr/lib/libxenon.a(xenon_sfcx.o)
 .comment       0x0000000000000000       0x12 /usr/local/xenon/usr/lib/libxenon.a(xenon_config.o)
 .comment       0x0000000000000000       0x12 /usr/local/xenon/usr/lib/libxenon.a(edram.o)
 .comment       0x0000000000000000       0x12 /usr/local/xenon/usr/lib/libxenon.a(xe.o)
 .comment       0x0000000000000000       0x12 /usr/local/xenon/usr/lib/libxenon.a(xenos.o)
 .comment       0x0000000000000000       0x12 /usr/local/xenon/usr/lib/libxenon.a(xenos_edid.o)
 .comment       0x0000000000000000       0x12 /usr/local/xenon/usr/lib/libxenon.a(enet.o)
 .comment       0x0000000000000000       0x12 /usr/local/xenon/usr/lib/libxenon.a(network.o)
 .comment       0x0000000000000000       0x12 /usr/local/xenon/usr/lib/libxenon.a(xb360.o)
 .comment       0x0000000000000000       0x12 /usr/local/xenon/usr/lib/libxenon.a(lib_malloc.o)
 .comment       0x0000000000000000       0x12 /usr/local/xenon/usr/lib/libxenon.a(io.o)
 .comment       0x0000000000000000       0x12 /usr/local/xenon/usr/lib/libxenon.a(time.o)
 .comment       0x0000000000000000       0x12 /usr/local/xenon/usr/lib/libxenon.a(dummy.o)
 .comment       0x0000000000000000       0x12 /usr/local/xenon/usr/lib/libxenon.a(ohci.o)
 .comment       0x0000000000000000       0x12 /usr/local/xenon/usr/lib/libxenon.a(usbdebug.o)
 .comment       0x0000000000000000       0x12 /usr/local/xenon/usr/lib/libxenon.a(usb_os.o)
 .comment       0x0000000000000000       0x12 /usr/local/xenon/usr/lib/libxenon.a(xenon_gpio.o)
 .comment       0x0000000000000000       0x12 /usr/local/xenon/usr/lib/libxenon.a(ucode.o)
 .comment       0x0000000000000000       0x12 /usr/local/xenon/usr/lib/libxenon.a(init.o)
 .comment       0x0000000000000000       0x12 /usr/local/xenon/usr/lib/libxenon.a(mem.o)
 .comment       0x0000000000000000       0x12 /usr/local/xenon/usr/lib/libxenon.a(dns.o)
 .comment       0x0000000000000000       0x12 /usr/local/xenon/usr/lib/libxenon.a(memp.o)
 .comment       0x0000000000000000       0x12 /usr/local/xenon/usr/lib/libxenon.a(netif.o)
 .comment       0x0000000000000000       0x12 /usr/local/xenon/usr/lib/libxenon.a(pbuf.o)
 .comment       0x0000000000000000       0x12 /usr/local/xenon/usr/lib/libxenon.a(stats.o)
 .comment       0x0000000000000000       0x12 /usr/local/xenon/usr/lib/libxenon.a(tcp.o)
 .comment       0x0000000000000000       0x12 /usr/local/xenon/usr/lib/libxenon.a(ip_addr.o)
 .comment       0x0000000000000000       0x12 /usr/local/xenon/usr/lib/libxenon.a(ip.o)
 .comment       0x0000000000000000       0x12 /usr/local/xenon/usr/lib/libxenon.a(ip_frag.o)
 .comment       0x0000000000000000       0x12 /usr/local/xenon/usr/lib/libxenon.a(tcp_out.o)
 .comment       0x0000000000000000       0x12 /usr/local/xenon/usr/lib/libxenon.a(udp.o)
 .comment       0x0000000000000000       0x12 /usr/local/xenon/usr/lib/libxenon.a(etharp.o)
 .comment       0x0000000000000000       0x12 /usr/local/xenon/usr/lib/libxenon.a(dhcp.o)
 .comment       0x0000000000000000       0x12 /usr/local/xenon/usr/lib/libxenon.a(raw.o)
 .comment       0x0000000000000000       0x12 /usr/local/xenon/usr/lib/libxenon.a(timers.o)
 .comment       0x0000000000000000       0x12 /usr/local/xenon/usr/lib/libxenon.a(lib_queue.o)
 .comment       0x0000000000000000       0x12 /usr/local/xenon/usr/lib/libxenon.a(tcp_in.o)
 .comment       0x0000000000000000       0x12 /usr/local/xenon/usr/lib/libxenon.a(inet_chksum.o)
 .comment       0x0000000000000000       0x12 /usr/local/xenon/usr/lib/libxenon.a(icmp.o)
 .comment       0x0000000000000000       0x12 /usr/local/xenon/lib/gcc/xenon/4.6.1/32/libgcc.a(unwind-dw2-fde-glibc.o)
 .comment       0x0000000000000000       0x12 /usr/local/xenon/xenon/lib/32/libc.a(lib_a-assert.o)
 .comment       0x0000000000000000       0x12 /usr/local/xenon/xenon/lib/32/libc.a(lib_a-exit.o)
 .comment       0x0000000000000000       0x12 /usr/local/xenon/xenon/lib/32/libc.a(lib_a-fclose.o)
 .comment       0x0000000000000000       0x12 /usr/local/xenon/xenon/lib/32/libc.a(lib_a-fflush.o)
 .comment       0x0000000000000000       0x12 /usr/local/xenon/xenon/lib/32/libc.a(lib_a-findfp.o)
 .comment       0x0000000000000000       0x12 /usr/local/xenon/xenon/lib/32/libc.a(lib_a-fiprintf.o)
 .comment       0x0000000000000000       0x12 /usr/local/xenon/xenon/lib/32/libc.a(lib_a-freer.o)
 .comment       0x0000000000000000       0x12 /usr/local/xenon/xenon/lib/32/libc.a(lib_a-fstatr.o)
 .comment       0x0000000000000000       0x12 /usr/local/xenon/xenon/lib/32/libc.a(lib_a-fwalk.o)
 .comment       0x0000000000000000       0x12 /usr/local/xenon/xenon/lib/32/libc.a(lib_a-impure.o)
 .comment       0x0000000000000000       0x12 /usr/local/xenon/xenon/lib/32/libc.a(lib_a-makebuf.o)
 .comment       0x0000000000000000       0x12 /usr/local/xenon/xenon/lib/32/libc.a(lib_a-malign.o)
 .comment       0x0000000000000000       0x12 /usr/local/xenon/xenon/lib/32/libc.a(lib_a-malignr.o)
 .comment       0x0000000000000000       0x12 /usr/local/xenon/xenon/lib/32/libc.a(lib_a-malloc.o)
 .comment       0x0000000000000000       0x12 /usr/local/xenon/xenon/lib/32/libc.a(lib_a-mallocr.o)
 .comment       0x0000000000000000       0x12 /usr/local/xenon/xenon/lib/32/libc.a(lib_a-memcmp.o)
 .comment       0x0000000000000000       0x12 /usr/local/xenon/xenon/lib/32/libc.a(lib_a-memcpy.o)
 .comment       0x0000000000000000       0x12 /usr/local/xenon/xenon/lib/32/libc.a(lib_a-memset.o)
 .comment       0x0000000000000000       0x12 /usr/local/xenon/xenon/lib/32/libc.a(lib_a-printf.o)
 .comment       0x0000000000000000       0x12 /usr/local/xenon/xenon/lib/32/libc.a(lib_a-putchar.o)
 .comment       0x0000000000000000       0x12 /usr/local/xenon/xenon/lib/32/libc.a(lib_a-putc.o)
 .comment       0x0000000000000000       0x12 /usr/local/xenon/xenon/lib/32/libc.a(lib_a-puts.o)
 .comment       0x0000000000000000       0x12 /usr/local/xenon/xenon/lib/32/libc.a(lib_a-reent.o)
 .comment       0x0000000000000000       0x12 /usr/local/xenon/xenon/lib/32/libc.a(lib_a-sbrkr.o)
 .comment       0x0000000000000000       0x12 /usr/local/xenon/xenon/lib/32/libc.a(lib_a-sprintf.o)
 .comment       0x0000000000000000       0x12 /usr/local/xenon/xenon/lib/32/libc.a(lib_a-stdio.o)
 .comment       0x0000000000000000       0x12 /usr/local/xenon/xenon/lib/32/libc.a(lib_a-strcat.o)
 .comment       0x0000000000000000       0x12 /usr/local/xenon/xenon/lib/32/libc.a(lib_a-strcmp.o)
 .comment       0x0000000000000000       0x12 /usr/local/xenon/xenon/lib/32/libc.a(lib_a-strcpy.o)
 .comment       0x0000000000000000       0x12 /usr/local/xenon/xenon/lib/32/libc.a(lib_a-strlen.o)
 .comment       0x0000000000000000       0x12 /usr/local/xenon/xenon/lib/32/libc.a(lib_a-strncpy.o)
 .comment       0x0000000000000000       0x12 /usr/local/xenon/xenon/lib/32/libc.a(lib_a-svfprintf.o)
 .comment       0x0000000000000000       0x12 /usr/local/xenon/xenon/lib/32/libc.a(lib_a-vfiprintf.o)
 .comment       0x0000000000000000       0x12 /usr/local/xenon/xenon/lib/32/libc.a(lib_a-vfprintf.o)
 .comment       0x0000000000000000       0x12 /usr/local/xenon/xenon/lib/32/libc.a(lib_a-vprintf.o)
 .comment       0x0000000000000000       0x12 /usr/local/xenon/xenon/lib/32/libc.a(lib_a-wbuf.o)
 .comment       0x0000000000000000       0x12 /usr/local/xenon/xenon/lib/32/libc.a(lib_a-writer.o)
 .comment       0x0000000000000000       0x12 /usr/local/xenon/xenon/lib/32/libc.a(lib_a-wsetup.o)
 .comment       0x0000000000000000       0x12 /usr/local/xenon/xenon/lib/32/libc.a(lib_a-__call_atexit.o)
 .comment       0x0000000000000000       0x12 /usr/local/xenon/xenon/lib/32/libc.a(lib_a-closer.o)
 .comment       0x0000000000000000       0x12 /usr/local/xenon/xenon/lib/32/libc.a(lib_a-dtoa.o)
 .comment       0x0000000000000000       0x12 /usr/local/xenon/xenon/lib/32/libc.a(lib_a-fvwrite.o)
 .comment       0x0000000000000000       0x12 /usr/local/xenon/xenon/lib/32/libc.a(lib_a-isattyr.o)
 .comment       0x0000000000000000       0x12 /usr/local/xenon/xenon/lib/32/libc.a(lib_a-locale.o)
 .comment       0x0000000000000000       0x12 /usr/local/xenon/xenon/lib/32/libc.a(lib_a-lseekr.o)
 .comment       0x0000000000000000       0x12 /usr/local/xenon/xenon/lib/32/libc.a(lib_a-memchr.o)
 .comment       0x0000000000000000       0x12 /usr/local/xenon/xenon/lib/32/libc.a(lib_a-memmove.o)
 .comment       0x0000000000000000       0x12 /usr/local/xenon/xenon/lib/32/libc.a(lib_a-mprec.o)
 .comment       0x0000000000000000       0x12 /usr/local/xenon/xenon/lib/32/libc.a(lib_a-readr.o)
 .comment       0x0000000000000000       0x12 /usr/local/xenon/xenon/lib/32/libc.a(lib_a-reallocr.o)
 .comment       0x0000000000000000       0x12 /usr/local/xenon/xenon/lib/32/libc.a(lib_a-s_isinfd.o)
 .comment       0x0000000000000000       0x12 /usr/local/xenon/xenon/lib/32/libc.a(lib_a-s_isnand.o)
 .comment       0x0000000000000000       0x12 /usr/local/xenon/xenon/lib/32/libc.a(lib_a-callocr.o)
 .comment       0x0000000000000000       0x12 /usr/local/xenon/lib/gcc/xenon/4.6.1/32/libgcc.a(_udivdi3.o)
 .comment       0x0000000000000000       0x12 /usr/local/xenon/lib/gcc/xenon/4.6.1/32/libgcc.a(_umoddi3.o)
 .comment       0x0000000000000000       0x12 /usr/local/xenon/lib/gcc/xenon/4.6.1/32/crtend.o

.note.GNU-stack
                0x0000000000000000        0x0
 .note.GNU-stack
                0x0000000000000000        0x0 /usr/local/xenon/lib/gcc/xenon/4.6.1/../../../../xenon/lib/../lib/crt1.o
 .note.GNU-stack
                0x0000000000000000        0x0 /usr/local/xenon/lib/gcc/xenon/4.6.1/32/crtbegin.o
 .note.GNU-stack
                0x0000000000000000        0x0 dashboard.o
 .note.GNU-stack
                0x0000000000000000        0x0 main.o
 .note.GNU-stack
                0x0000000000000000        0x0 VL.o
 .note.GNU-stack
                0x0000000000000000        0x0 /usr/local/xenon/usr/lib/libxenon.a(argv.o)
 .note.GNU-stack
                0x0000000000000000        0x0 /usr/local/xenon/usr/lib/libxenon.a(console.o)
 .note.GNU-stack
                0x0000000000000000        0x0 /usr/local/xenon/usr/lib/libxenon.a(input.o)
 .note.GNU-stack
                0x0000000000000000        0x0 /usr/local/xenon/usr/lib/libxenon.a(newlib.o)
 .note.GNU-stack
                0x0000000000000000        0x0 /usr/local/xenon/usr/lib/libxenon.a(xenon_syscalls.o)
 .note.GNU-stack
                0x0000000000000000        0x0 /usr/local/xenon/usr/lib/libxenon.a(c_except.o)
 .note.GNU-stack
                0x0000000000000000        0x0 /usr/local/xenon/usr/lib/libxenon.a(vm.o)
 .note.GNU-stack
                0x0000000000000000        0x0 /usr/local/xenon/usr/lib/libxenon.a(usbctrl.o)
 .note.GNU-stack
                0x0000000000000000        0x0 /usr/local/xenon/usr/lib/libxenon.a(usbd.o)
 .note.GNU-stack
                0x0000000000000000        0x0 /usr/local/xenon/usr/lib/libxenon.a(usbdevs.o)
 .note.GNU-stack
                0x0000000000000000        0x0 /usr/local/xenon/usr/lib/libxenon.a(usbhid.o)
 .note.GNU-stack
                0x0000000000000000        0x0 /usr/local/xenon/usr/lib/libxenon.a(usbhub.o)
 .note.GNU-stack
                0x0000000000000000        0x0 /usr/local/xenon/usr/lib/libxenon.a(usbmain.o)
 .note.GNU-stack
                0x0000000000000000        0x0 /usr/local/xenon/usr/lib/libxenon.a(tinyehci.o)
 .note.GNU-stack
                0x0000000000000000        0x0 /usr/local/xenon/usr/lib/libxenon.a(xenon_smc.o)
 .note.GNU-stack
                0x0000000000000000        0x0 /usr/local/xenon/usr/lib/libxenon.a(xenon_power.o)
 .note.GNU-stack
                0x0000000000000000        0x0 /usr/local/xenon/usr/lib/libxenon.a(xenon_uart.o)
 .note.GNU-stack
                0x0000000000000000        0x0 /usr/local/xenon/usr/lib/libxenon.a(xenon_sfcx.o)
 .note.GNU-stack
                0x0000000000000000        0x0 /usr/local/xenon/usr/lib/libxenon.a(xenon_config.o)
 .note.GNU-stack
                0x0000000000000000        0x0 /usr/local/xenon/usr/lib/libxenon.a(edram.o)
 .note.GNU-stack
                0x0000000000000000        0x0 /usr/local/xenon/usr/lib/libxenon.a(xe.o)
 .note.GNU-stack
                0x0000000000000000        0x0 /usr/local/xenon/usr/lib/libxenon.a(xenos.o)
 .note.GNU-stack
                0x0000000000000000        0x0 /usr/local/xenon/usr/lib/libxenon.a(xenos_edid.o)
 .note.GNU-stack
                0x0000000000000000        0x0 /usr/local/xenon/usr/lib/libxenon.a(enet.o)
 .note.GNU-stack
                0x0000000000000000        0x0 /usr/local/xenon/usr/lib/libxenon.a(network.o)
 .note.GNU-stack
                0x0000000000000000        0x0 /usr/local/xenon/usr/lib/libxenon.a(xb360.o)
 .note.GNU-stack
                0x0000000000000000        0x0 /usr/local/xenon/usr/lib/libxenon.a(lib_malloc.o)
 .note.GNU-stack
                0x0000000000000000        0x0 /usr/local/xenon/usr/lib/libxenon.a(io.o)
 .note.GNU-stack
                0x0000000000000000        0x0 /usr/local/xenon/usr/lib/libxenon.a(time.o)
 .note.GNU-stack
                0x0000000000000000        0x0 /usr/local/xenon/usr/lib/libxenon.a(dummy.o)
 .note.GNU-stack
                0x0000000000000000        0x0 /usr/local/xenon/usr/lib/libxenon.a(ohci.o)
 .note.GNU-stack
                0x0000000000000000        0x0 /usr/local/xenon/usr/lib/libxenon.a(usbdebug.o)
 .note.GNU-stack
                0x0000000000000000        0x0 /usr/local/xenon/usr/lib/libxenon.a(usb_os.o)
 .note.GNU-stack
                0x0000000000000000        0x0 /usr/local/xenon/usr/lib/libxenon.a(xenon_gpio.o)
 .note.GNU-stack
                0x0000000000000000        0x0 /usr/local/xenon/usr/lib/libxenon.a(ucode.o)
 .note.GNU-stack
                0x0000000000000000        0x0 /usr/local/xenon/usr/lib/libxenon.a(init.o)
 .note.GNU-stack
                0x0000000000000000        0x0 /usr/local/xenon/usr/lib/libxenon.a(mem.o)
 .note.GNU-stack
                0x0000000000000000        0x0 /usr/local/xenon/usr/lib/libxenon.a(dns.o)
 .note.GNU-stack
                0x0000000000000000        0x0 /usr/local/xenon/usr/lib/libxenon.a(memp.o)
 .note.GNU-stack
                0x0000000000000000        0x0 /usr/local/xenon/usr/lib/libxenon.a(netif.o)
 .note.GNU-stack
                0x0000000000000000        0x0 /usr/local/xenon/usr/lib/libxenon.a(pbuf.o)
 .note.GNU-stack
                0x0000000000000000        0x0 /usr/local/xenon/usr/lib/libxenon.a(stats.o)
 .note.GNU-stack
                0x0000000000000000        0x0 /usr/local/xenon/usr/lib/libxenon.a(tcp.o)
 .note.GNU-stack
                0x0000000000000000        0x0 /usr/local/xenon/usr/lib/libxenon.a(ip_addr.o)
 .note.GNU-stack
                0x0000000000000000        0x0 /usr/local/xenon/usr/lib/libxenon.a(ip.o)
 .note.GNU-stack
                0x0000000000000000        0x0 /usr/local/xenon/usr/lib/libxenon.a(ip_frag.o)
 .note.GNU-stack
                0x0000000000000000        0x0 /usr/local/xenon/usr/lib/libxenon.a(tcp_out.o)
 .note.GNU-stack
                0x0000000000000000        0x0 /usr/local/xenon/usr/lib/libxenon.a(udp.o)
 .note.GNU-stack
                0x0000000000000000        0x0 /usr/local/xenon/usr/lib/libxenon.a(etharp.o)
 .note.GNU-stack
                0x0000000000000000        0x0 /usr/local/xenon/usr/lib/libxenon.a(dhcp.o)
 .note.GNU-stack
                0x0000000000000000        0x0 /usr/local/xenon/usr/lib/libxenon.a(raw.o)
 .note.GNU-stack
                0x0000000000000000        0x0 /usr/local/xenon/usr/lib/libxenon.a(timers.o)
 .note.GNU-stack
                0x0000000000000000        0x0 /usr/local/xenon/usr/lib/libxenon.a(lib_queue.o)
 .note.GNU-stack
                0x0000000000000000        0x0 /usr/local/xenon/usr/lib/libxenon.a(tcp_in.o)
 .note.GNU-stack
                0x0000000000000000        0x0 /usr/local/xenon/usr/lib/libxenon.a(inet_chksum.o)
 .note.GNU-stack
                0x0000000000000000        0x0 /usr/local/xenon/usr/lib/libxenon.a(icmp.o)
 .note.GNU-stack
                0x0000000000000000        0x0 /usr/local/xenon/lib/gcc/xenon/4.6.1/32/libgcc.a(crtsavgpr.o)
 .note.GNU-stack
                0x0000000000000000        0x0 /usr/local/xenon/lib/gcc/xenon/4.6.1/32/libgcc.a(crtresxgpr.o)
 .note.GNU-stack
                0x0000000000000000        0x0 /usr/local/xenon/lib/gcc/xenon/4.6.1/32/libgcc.a(unwind-dw2-fde-glibc.o)
 .note.GNU-stack
                0x0000000000000000        0x0 /usr/local/xenon/xenon/lib/32/libc.a(lib_a-assert.o)
 .note.GNU-stack
                0x0000000000000000        0x0 /usr/local/xenon/xenon/lib/32/libc.a(lib_a-exit.o)
 .note.GNU-stack
                0x0000000000000000        0x0 /usr/local/xenon/xenon/lib/32/libc.a(lib_a-fclose.o)
 .note.GNU-stack
                0x0000000000000000        0x0 /usr/local/xenon/xenon/lib/32/libc.a(lib_a-fflush.o)
 .note.GNU-stack
                0x0000000000000000        0x0 /usr/local/xenon/xenon/lib/32/libc.a(lib_a-findfp.o)
 .note.GNU-stack
                0x0000000000000000        0x0 /usr/local/xenon/xenon/lib/32/libc.a(lib_a-fiprintf.o)
 .note.GNU-stack
                0x0000000000000000        0x0 /usr/local/xenon/xenon/lib/32/libc.a(lib_a-freer.o)
 .note.GNU-stack
                0x0000000000000000        0x0 /usr/local/xenon/xenon/lib/32/libc.a(lib_a-fstatr.o)
 .note.GNU-stack
                0x0000000000000000        0x0 /usr/local/xenon/xenon/lib/32/libc.a(lib_a-fwalk.o)
 .note.GNU-stack
                0x0000000000000000        0x0 /usr/local/xenon/xenon/lib/32/libc.a(lib_a-impure.o)
 .note.GNU-stack
                0x0000000000000000        0x0 /usr/local/xenon/xenon/lib/32/libc.a(lib_a-makebuf.o)
 .note.GNU-stack
                0x0000000000000000        0x0 /usr/local/xenon/xenon/lib/32/libc.a(lib_a-malign.o)
 .note.GNU-stack
                0x0000000000000000        0x0 /usr/local/xenon/xenon/lib/32/libc.a(lib_a-malignr.o)
 .note.GNU-stack
                0x0000000000000000        0x0 /usr/local/xenon/xenon/lib/32/libc.a(lib_a-malloc.o)
 .note.GNU-stack
                0x0000000000000000        0x0 /usr/local/xenon/xenon/lib/32/libc.a(lib_a-mallocr.o)
 .note.GNU-stack
                0x0000000000000000        0x0 /usr/local/xenon/xenon/lib/32/libc.a(lib_a-memcmp.o)
 .note.GNU-stack
                0x0000000000000000        0x0 /usr/local/xenon/xenon/lib/32/libc.a(lib_a-memcpy.o)
 .note.GNU-stack
                0x0000000000000000        0x0 /usr/local/xenon/xenon/lib/32/libc.a(lib_a-memset.o)
 .note.GNU-stack
                0x0000000000000000        0x0 /usr/local/xenon/xenon/lib/32/libc.a(lib_a-printf.o)
 .note.GNU-stack
                0x0000000000000000        0x0 /usr/local/xenon/xenon/lib/32/libc.a(lib_a-putchar.o)
 .note.GNU-stack
                0x0000000000000000        0x0 /usr/local/xenon/xenon/lib/32/libc.a(lib_a-putc.o)
 .note.GNU-stack
                0x0000000000000000        0x0 /usr/local/xenon/xenon/lib/32/libc.a(lib_a-puts.o)
 .note.GNU-stack
                0x0000000000000000        0x0 /usr/local/xenon/xenon/lib/32/libc.a(lib_a-reent.o)
 .note.GNU-stack
                0x0000000000000000        0x0 /usr/local/xenon/xenon/lib/32/libc.a(lib_a-sbrkr.o)
 .note.GNU-stack
                0x0000000000000000        0x0 /usr/local/xenon/xenon/lib/32/libc.a(lib_a-sprintf.o)
 .note.GNU-stack
                0x0000000000000000        0x0 /usr/local/xenon/xenon/lib/32/libc.a(lib_a-stdio.o)
 .note.GNU-stack
                0x0000000000000000        0x0 /usr/local/xenon/xenon/lib/32/libc.a(lib_a-strcat.o)
 .note.GNU-stack
                0x0000000000000000        0x0 /usr/local/xenon/xenon/lib/32/libc.a(lib_a-strcmp.o)
 .note.GNU-stack
                0x0000000000000000        0x0 /usr/local/xenon/xenon/lib/32/libc.a(lib_a-strcpy.o)
 .note.GNU-stack
                0x0000000000000000        0x0 /usr/local/xenon/xenon/lib/32/libc.a(lib_a-strlen.o)
 .note.GNU-stack
                0x0000000000000000        0x0 /usr/local/xenon/xenon/lib/32/libc.a(lib_a-strncpy.o)
 .note.GNU-stack
                0x0000000000000000        0x0 /usr/local/xenon/xenon/lib/32/libc.a(lib_a-svfprintf.o)
 .note.GNU-stack
                0x0000000000000000        0x0 /usr/local/xenon/xenon/lib/32/libc.a(lib_a-vfiprintf.o)
 .note.GNU-stack
                0x0000000000000000        0x0 /usr/local/xenon/xenon/lib/32/libc.a(lib_a-vfprintf.o)
 .note.GNU-stack
                0x0000000000000000        0x0 /usr/local/xenon/xenon/lib/32/libc.a(lib_a-vprintf.o)
 .note.GNU-stack
                0x0000000000000000        0x0 /usr/local/xenon/xenon/lib/32/libc.a(lib_a-wbuf.o)
 .note.GNU-stack
                0x0000000000000000        0x0 /usr/local/xenon/xenon/lib/32/libc.a(lib_a-writer.o)
 .note.GNU-stack
                0x0000000000000000        0x0 /usr/local/xenon/xenon/lib/32/libc.a(lib_a-wsetup.o)
 .note.GNU-stack
                0x0000000000000000        0x0 /usr/local/xenon/xenon/lib/32/libc.a(lib_a-__call_atexit.o)
 .note.GNU-stack
                0x0000000000000000        0x0 /usr/local/xenon/xenon/lib/32/libc.a(lib_a-closer.o)
 .note.GNU-stack
                0x0000000000000000        0x0 /usr/local/xenon/xenon/lib/32/libc.a(lib_a-dtoa.o)
 .note.GNU-stack
                0x0000000000000000        0x0 /usr/local/xenon/xenon/lib/32/libc.a(lib_a-fvwrite.o)
 .note.GNU-stack
                0x0000000000000000        0x0 /usr/local/xenon/xenon/lib/32/libc.a(lib_a-isattyr.o)
 .note.GNU-stack
                0x0000000000000000        0x0 /usr/local/xenon/xenon/lib/32/libc.a(lib_a-locale.o)
 .note.GNU-stack
                0x0000000000000000        0x0 /usr/local/xenon/xenon/lib/32/libc.a(lib_a-lseekr.o)
 .note.GNU-stack
                0x0000000000000000        0x0 /usr/local/xenon/xenon/lib/32/libc.a(lib_a-memchr.o)
 .note.GNU-stack
                0x0000000000000000        0x0 /usr/local/xenon/xenon/lib/32/libc.a(lib_a-memmove.o)
 .note.GNU-stack
                0x0000000000000000        0x0 /usr/local/xenon/xenon/lib/32/libc.a(lib_a-mprec.o)
 .note.GNU-stack
                0x0000000000000000        0x0 /usr/local/xenon/xenon/lib/32/libc.a(lib_a-readr.o)
 .note.GNU-stack
                0x0000000000000000        0x0 /usr/local/xenon/xenon/lib/32/libc.a(lib_a-reallocr.o)
 .note.GNU-stack
                0x0000000000000000        0x0 /usr/local/xenon/xenon/lib/32/libc.a(lib_a-s_isinfd.o)
 .note.GNU-stack
                0x0000000000000000        0x0 /usr/local/xenon/xenon/lib/32/libc.a(lib_a-s_isnand.o)
 .note.GNU-stack
                0x0000000000000000        0x0 /usr/local/xenon/xenon/lib/32/libc.a(lib_a-callocr.o)
 .note.GNU-stack
                0x0000000000000000        0x0 /usr/local/xenon/lib/gcc/xenon/4.6.1/32/libgcc.a(_udivdi3.o)
 .note.GNU-stack
                0x0000000000000000        0x0 /usr/local/xenon/lib/gcc/xenon/4.6.1/32/libgcc.a(_umoddi3.o)
 .note.GNU-stack
                0x0000000000000000        0x0 /usr/local/xenon/lib/gcc/xenon/4.6.1/32/crtend.o

.gnu.attributes
                0x0000000000000000       0x12
 .gnu.attributes
                0x0000000000000000       0x10 /usr/local/xenon/usr/lib/libxenon.a(xe.o)
 .gnu.attributes
                0x0000000000000010       0x10 /usr/local/xenon/usr/lib/libxenon.a(dns.o)
 .gnu.attributes
                0x0000000000000020       0x10 /usr/local/xenon/xenon/lib/32/libc.a(lib_a-fiprintf.o)
 .gnu.attributes
                0x0000000000000030       0x10 /usr/local/xenon/xenon/lib/32/libc.a(lib_a-printf.o)
 .gnu.attributes
                0x0000000000000040       0x10 /usr/local/xenon/xenon/lib/32/libc.a(lib_a-sprintf.o)
 .gnu.attributes
                0x0000000000000050       0x10 /usr/local/xenon/xenon/lib/32/libc.a(lib_a-svfprintf.o)
 .gnu.attributes
                0x0000000000000060       0x10 /usr/local/xenon/xenon/lib/32/libc.a(lib_a-vfprintf.o)
 .gnu.attributes
                0x0000000000000070       0x10 /usr/local/xenon/xenon/lib/32/libc.a(lib_a-dtoa.o)
 .gnu.attributes
                0x0000000000000080       0x10 /usr/local/xenon/xenon/lib/32/libc.a(lib_a-mprec.o)
 .gnu.attributes
                0x0000000000000090       0x10 /usr/local/xenon/xenon/lib/32/libc.a(lib_a-s_isinfd.o)
 .gnu.attributes
                0x00000000000000a0       0x10 /usr/local/xenon/xenon/lib/32/libc.a(lib_a-s_isnand.o)

.debug_frame    0x0000000000000000     0x6c1c
 .debug_frame   0x0000000000000000       0x60 /usr/local/xenon/lib/gcc/xenon/4.6.1/../../../../xenon/lib/../lib/crt1.o
 .debug_frame   0x0000000000000060       0x88 dashboard.o
 .debug_frame   0x00000000000000e8       0x2c main.o
 .debug_frame   0x0000000000000114       0x30 VL.o
 .debug_frame   0x0000000000000144       0x20 /usr/local/xenon/usr/lib/libxenon.a(argv.o)
 .debug_frame   0x0000000000000164      0x118 /usr/local/xenon/usr/lib/libxenon.a(console.o)
 .debug_frame   0x000000000000027c       0x6c /usr/local/xenon/usr/lib/libxenon.a(input.o)
 .debug_frame   0x00000000000002e8      0x750 /usr/local/xenon/usr/lib/libxenon.a(newlib.o)
 .debug_frame   0x0000000000000a38       0xe0 /usr/local/xenon/usr/lib/libxenon.a(xenon_syscalls.o)
 .debug_frame   0x0000000000000b18       0x60 /usr/local/xenon/usr/lib/libxenon.a(c_except.o)
 .debug_frame   0x0000000000000b78       0xa4 /usr/local/xenon/usr/lib/libxenon.a(vm.o)
 .debug_frame   0x0000000000000c1c      0x12c /usr/local/xenon/usr/lib/libxenon.a(usbctrl.o)
 .debug_frame   0x0000000000000d48      0x3a0 /usr/local/xenon/usr/lib/libxenon.a(usbd.o)
 .debug_frame   0x00000000000010e8       0x38 /usr/local/xenon/usr/lib/libxenon.a(usbdevs.o)
 .debug_frame   0x0000000000001120       0x88 /usr/local/xenon/usr/lib/libxenon.a(usbhid.o)
 .debug_frame   0x00000000000011a8      0x17c /usr/local/xenon/usr/lib/libxenon.a(usbhub.o)
 .debug_frame   0x0000000000001324       0x94 /usr/local/xenon/usr/lib/libxenon.a(usbmain.o)
 .debug_frame   0x00000000000013b8      0x74c /usr/local/xenon/usr/lib/libxenon.a(tinyehci.o)
 .debug_frame   0x0000000000001b04      0x238 /usr/local/xenon/usr/lib/libxenon.a(xenon_smc.o)
 .debug_frame   0x0000000000001d3c      0x12c /usr/local/xenon/usr/lib/libxenon.a(xenon_power.o)
 .debug_frame   0x0000000000001e68       0x7c /usr/local/xenon/usr/lib/libxenon.a(xenon_uart.o)
 .debug_frame   0x0000000000001ee4      0x224 /usr/local/xenon/usr/lib/libxenon.a(xenon_sfcx.o)
 .debug_frame   0x0000000000002108       0x78 /usr/local/xenon/usr/lib/libxenon.a(xenon_config.o)
 .debug_frame   0x0000000000002180      0x24c /usr/local/xenon/usr/lib/libxenon.a(edram.o)
 .debug_frame   0x00000000000023cc      0xe44 /usr/local/xenon/usr/lib/libxenon.a(xe.o)
 .debug_frame   0x0000000000003210      0x1c4 /usr/local/xenon/usr/lib/libxenon.a(xenos.o)
 .debug_frame   0x00000000000033d4       0x84 /usr/local/xenon/usr/lib/libxenon.a(xenos_edid.o)
 .debug_frame   0x0000000000003458       0xc4 /usr/local/xenon/usr/lib/libxenon.a(enet.o)
 .debug_frame   0x000000000000351c       0x80 /usr/local/xenon/usr/lib/libxenon.a(network.o)
 .debug_frame   0x000000000000359c      0x1dc /usr/local/xenon/usr/lib/libxenon.a(xb360.o)
 .debug_frame   0x0000000000003778       0xc4 /usr/local/xenon/usr/lib/libxenon.a(lib_malloc.o)
 .debug_frame   0x000000000000383c       0x50 /usr/local/xenon/usr/lib/libxenon.a(io.o)
 .debug_frame   0x000000000000388c       0x50 /usr/local/xenon/usr/lib/libxenon.a(time.o)
 .debug_frame   0x00000000000038dc       0x30 /usr/local/xenon/usr/lib/libxenon.a(dummy.o)
 .debug_frame   0x000000000000390c      0x1dc /usr/local/xenon/usr/lib/libxenon.a(ohci.o)
 .debug_frame   0x0000000000003ae8       0xdc /usr/local/xenon/usr/lib/libxenon.a(usbdebug.o)
 .debug_frame   0x0000000000003bc4      0x160 /usr/local/xenon/usr/lib/libxenon.a(usb_os.o)
 .debug_frame   0x0000000000003d24       0x70 /usr/local/xenon/usr/lib/libxenon.a(xenon_gpio.o)
 .debug_frame   0x0000000000003d94       0x2c /usr/local/xenon/usr/lib/libxenon.a(init.o)
 .debug_frame   0x0000000000003dc0       0x98 /usr/local/xenon/usr/lib/libxenon.a(mem.o)
 .debug_frame   0x0000000000003e58      0x12c /usr/local/xenon/usr/lib/libxenon.a(dns.o)
 .debug_frame   0x0000000000003f84       0x60 /usr/local/xenon/usr/lib/libxenon.a(memp.o)
 .debug_frame   0x0000000000003fe4      0x174 /usr/local/xenon/usr/lib/libxenon.a(netif.o)
 .debug_frame   0x0000000000004158      0x254 /usr/local/xenon/usr/lib/libxenon.a(pbuf.o)
 .debug_frame   0x00000000000043ac       0x20 /usr/local/xenon/usr/lib/libxenon.a(stats.o)
 .debug_frame   0x00000000000043cc      0x36c /usr/local/xenon/usr/lib/libxenon.a(tcp.o)
 .debug_frame   0x0000000000004738       0x90 /usr/local/xenon/usr/lib/libxenon.a(ip_addr.o)
 .debug_frame   0x00000000000047c8       0x94 /usr/local/xenon/usr/lib/libxenon.a(ip.o)
 .debug_frame   0x000000000000485c      0x134 /usr/local/xenon/usr/lib/libxenon.a(ip_frag.o)
 .debug_frame   0x0000000000004990      0x204 /usr/local/xenon/usr/lib/libxenon.a(tcp_out.o)
 .debug_frame   0x0000000000004b94      0x138 /usr/local/xenon/usr/lib/libxenon.a(udp.o)
 .debug_frame   0x0000000000004ccc      0x1a8 /usr/local/xenon/usr/lib/libxenon.a(etharp.o)
 .debug_frame   0x0000000000004e74      0x368 /usr/local/xenon/usr/lib/libxenon.a(dhcp.o)
 .debug_frame   0x00000000000051dc       0xd8 /usr/local/xenon/usr/lib/libxenon.a(raw.o)
 .debug_frame   0x00000000000052b4       0x20 /usr/local/xenon/usr/lib/libxenon.a(timers.o)
 .debug_frame   0x00000000000052d4       0x88 /usr/local/xenon/usr/lib/libxenon.a(lib_queue.o)
 .debug_frame   0x000000000000535c       0xa0 /usr/local/xenon/usr/lib/libxenon.a(tcp_in.o)
 .debug_frame   0x00000000000053fc       0xc4 /usr/local/xenon/usr/lib/libxenon.a(inet_chksum.o)
 .debug_frame   0x00000000000054c0       0x80 /usr/local/xenon/usr/lib/libxenon.a(icmp.o)
 .debug_frame   0x0000000000005540       0x48 /usr/local/xenon/xenon/lib/32/libc.a(lib_a-assert.o)
 .debug_frame   0x0000000000005588       0x30 /usr/local/xenon/xenon/lib/32/libc.a(lib_a-exit.o)
 .debug_frame   0x00000000000055b8       0x70 /usr/local/xenon/xenon/lib/32/libc.a(lib_a-fclose.o)
 .debug_frame   0x0000000000005628       0x88 /usr/local/xenon/xenon/lib/32/libc.a(lib_a-fflush.o)
 .debug_frame   0x00000000000056b0      0x1ac /usr/local/xenon/xenon/lib/32/libc.a(lib_a-findfp.o)
 .debug_frame   0x000000000000585c       0x50 /usr/local/xenon/xenon/lib/32/libc.a(lib_a-fiprintf.o)
 .debug_frame   0x00000000000058ac       0x7c /usr/local/xenon/xenon/lib/32/libc.a(lib_a-freer.o)
 .debug_frame   0x0000000000005928       0x44 /usr/local/xenon/xenon/lib/32/libc.a(lib_a-fstatr.o)
 .debug_frame   0x000000000000596c       0x74 /usr/local/xenon/xenon/lib/32/libc.a(lib_a-fwalk.o)
 .debug_frame   0x00000000000059e0       0x5c /usr/local/xenon/xenon/lib/32/libc.a(lib_a-makebuf.o)
 .debug_frame   0x0000000000005a3c       0x34 /usr/local/xenon/xenon/lib/32/libc.a(lib_a-malign.o)
 .debug_frame   0x0000000000005a70       0x64 /usr/local/xenon/xenon/lib/32/libc.a(lib_a-malignr.o)
 .debug_frame   0x0000000000005ad4       0x58 /usr/local/xenon/xenon/lib/32/libc.a(lib_a-malloc.o)
 .debug_frame   0x0000000000005b2c       0x84 /usr/local/xenon/xenon/lib/32/libc.a(lib_a-mallocr.o)
 .debug_frame   0x0000000000005bb0       0x38 /usr/local/xenon/xenon/lib/32/libc.a(lib_a-memcmp.o)
 .debug_frame   0x0000000000005be8       0x34 /usr/local/xenon/xenon/lib/32/libc.a(lib_a-memcpy.o)
 .debug_frame   0x0000000000005c1c       0x34 /usr/local/xenon/xenon/lib/32/libc.a(lib_a-memset.o)
 .debug_frame   0x0000000000005c50       0x50 /usr/local/xenon/xenon/lib/32/libc.a(lib_a-printf.o)
 .debug_frame   0x0000000000005ca0       0x50 /usr/local/xenon/xenon/lib/32/libc.a(lib_a-putchar.o)
 .debug_frame   0x0000000000005cf0       0x78 /usr/local/xenon/xenon/lib/32/libc.a(lib_a-putc.o)
 .debug_frame   0x0000000000005d68       0x60 /usr/local/xenon/xenon/lib/32/libc.a(lib_a-puts.o)
 .debug_frame   0x0000000000005dc8       0xa4 /usr/local/xenon/xenon/lib/32/libc.a(lib_a-reent.o)
 .debug_frame   0x0000000000005e6c       0x44 /usr/local/xenon/xenon/lib/32/libc.a(lib_a-sbrkr.o)
 .debug_frame   0x0000000000005eb0       0x58 /usr/local/xenon/xenon/lib/32/libc.a(lib_a-sprintf.o)
 .debug_frame   0x0000000000005f08       0xa0 /usr/local/xenon/xenon/lib/32/libc.a(lib_a-stdio.o)
 .debug_frame   0x0000000000005fa8       0x34 /usr/local/xenon/xenon/lib/32/libc.a(lib_a-strcat.o)
 .debug_frame   0x0000000000005fdc       0x34 /usr/local/xenon/xenon/lib/32/libc.a(lib_a-strcmp.o)
 .debug_frame   0x0000000000006010       0x30 /usr/local/xenon/xenon/lib/32/libc.a(lib_a-strcpy.o)
 .debug_frame   0x0000000000006040       0x38 /usr/local/xenon/xenon/lib/32/libc.a(lib_a-strlen.o)
 .debug_frame   0x0000000000006078       0x30 /usr/local/xenon/xenon/lib/32/libc.a(lib_a-strncpy.o)
 .debug_frame   0x00000000000060a8       0xe8 /usr/local/xenon/xenon/lib/32/libc.a(lib_a-svfprintf.o)
 .debug_frame   0x0000000000006190       0xc0 /usr/local/xenon/xenon/lib/32/libc.a(lib_a-vfiprintf.o)
 .debug_frame   0x0000000000006250       0xc8 /usr/local/xenon/xenon/lib/32/libc.a(lib_a-vfprintf.o)
 .debug_frame   0x0000000000006318       0x50 /usr/local/xenon/xenon/lib/32/libc.a(lib_a-vprintf.o)
 .debug_frame   0x0000000000006368       0x68 /usr/local/xenon/xenon/lib/32/libc.a(lib_a-wbuf.o)
 .debug_frame   0x00000000000063d0       0x44 /usr/local/xenon/xenon/lib/32/libc.a(lib_a-writer.o)
 .debug_frame   0x0000000000006414       0x3c /usr/local/xenon/xenon/lib/32/libc.a(lib_a-wsetup.o)
 .debug_frame   0x0000000000006450       0x64 /usr/local/xenon/xenon/lib/32/libc.a(lib_a-__call_atexit.o)
 .debug_frame   0x00000000000064b4       0x44 /usr/local/xenon/xenon/lib/32/libc.a(lib_a-closer.o)
 .debug_frame   0x00000000000064f8       0xb4 /usr/local/xenon/xenon/lib/32/libc.a(lib_a-dtoa.o)
 .debug_frame   0x00000000000065ac       0x5c /usr/local/xenon/xenon/lib/32/libc.a(lib_a-fvwrite.o)
 .debug_frame   0x0000000000006608       0x44 /usr/local/xenon/xenon/lib/32/libc.a(lib_a-isattyr.o)
 .debug_frame   0x000000000000664c       0xd4 /usr/local/xenon/xenon/lib/32/libc.a(lib_a-locale.o)
 .debug_frame   0x0000000000006720       0x44 /usr/local/xenon/xenon/lib/32/libc.a(lib_a-lseekr.o)
 .debug_frame   0x0000000000006764       0x34 /usr/local/xenon/xenon/lib/32/libc.a(lib_a-memchr.o)
 .debug_frame   0x0000000000006798       0x3c /usr/local/xenon/xenon/lib/32/libc.a(lib_a-memmove.o)
 .debug_frame   0x00000000000067d4      0x324 /usr/local/xenon/xenon/lib/32/libc.a(lib_a-mprec.o)
 .debug_frame   0x0000000000006af8       0x44 /usr/local/xenon/xenon/lib/32/libc.a(lib_a-readr.o)
 .debug_frame   0x0000000000006b3c       0x5c /usr/local/xenon/xenon/lib/32/libc.a(lib_a-reallocr.o)
 .debug_frame   0x0000000000006b98       0x28 /usr/local/xenon/xenon/lib/32/libc.a(lib_a-s_isinfd.o)
 .debug_frame   0x0000000000006bc0       0x28 /usr/local/xenon/xenon/lib/32/libc.a(lib_a-s_isnand.o)
 .debug_frame   0x0000000000006be8       0x34 /usr/local/xenon/xenon/lib/32/libc.a(lib_a-callocr.o)
